
ctarget：     文件格式 elf64-x86-64


Disassembly of section .init:

0000000000400c68 <_init>:
  400c68:	48 83 ec 08          	sub    $0x8,%rsp
  400c6c:	48 8b 05 85 43 20 00 	mov    0x204385(%rip),%rax        # 604ff8 <_DYNAMIC+0x1e0>
  400c73:	48 85 c0             	test   %rax,%rax
  400c76:	74 05                	je     400c7d <_init+0x15>
  400c78:	e8 43 02 00 00       	callq  400ec0 <socket@plt+0x10>
  400c7d:	48 83 c4 08          	add    $0x8,%rsp
  400c81:	c3                   	retq   

Disassembly of section .plt:

0000000000400c90 <strcasecmp@plt-0x10>:
  400c90:	ff 35 72 43 20 00    	pushq  0x204372(%rip)        # 605008 <_GLOBAL_OFFSET_TABLE_+0x8>
  400c96:	ff 25 74 43 20 00    	jmpq   *0x204374(%rip)        # 605010 <_GLOBAL_OFFSET_TABLE_+0x10>
  400c9c:	0f 1f 40 00          	nopl   0x0(%rax)

0000000000400ca0 <strcasecmp@plt>:
  400ca0:	ff 25 72 43 20 00    	jmpq   *0x204372(%rip)        # 605018 <_GLOBAL_OFFSET_TABLE_+0x18>
  400ca6:	68 00 00 00 00       	pushq  $0x0
  400cab:	e9 e0 ff ff ff       	jmpq   400c90 <_init+0x28>

0000000000400cb0 <__errno_location@plt>:
  400cb0:	ff 25 6a 43 20 00    	jmpq   *0x20436a(%rip)        # 605020 <_GLOBAL_OFFSET_TABLE_+0x20>
  400cb6:	68 01 00 00 00       	pushq  $0x1
  400cbb:	e9 d0 ff ff ff       	jmpq   400c90 <_init+0x28>

0000000000400cc0 <srandom@plt>:
  400cc0:	ff 25 62 43 20 00    	jmpq   *0x204362(%rip)        # 605028 <_GLOBAL_OFFSET_TABLE_+0x28>
  400cc6:	68 02 00 00 00       	pushq  $0x2
  400ccb:	e9 c0 ff ff ff       	jmpq   400c90 <_init+0x28>

0000000000400cd0 <strncmp@plt>:
  400cd0:	ff 25 5a 43 20 00    	jmpq   *0x20435a(%rip)        # 605030 <_GLOBAL_OFFSET_TABLE_+0x30>
  400cd6:	68 03 00 00 00       	pushq  $0x3
  400cdb:	e9 b0 ff ff ff       	jmpq   400c90 <_init+0x28>

0000000000400ce0 <strcpy@plt>:
  400ce0:	ff 25 52 43 20 00    	jmpq   *0x204352(%rip)        # 605038 <_GLOBAL_OFFSET_TABLE_+0x38>
  400ce6:	68 04 00 00 00       	pushq  $0x4
  400ceb:	e9 a0 ff ff ff       	jmpq   400c90 <_init+0x28>

0000000000400cf0 <puts@plt>:
  400cf0:	ff 25 4a 43 20 00    	jmpq   *0x20434a(%rip)        # 605040 <_GLOBAL_OFFSET_TABLE_+0x40>
  400cf6:	68 05 00 00 00       	pushq  $0x5
  400cfb:	e9 90 ff ff ff       	jmpq   400c90 <_init+0x28>

0000000000400d00 <write@plt>:
  400d00:	ff 25 42 43 20 00    	jmpq   *0x204342(%rip)        # 605048 <_GLOBAL_OFFSET_TABLE_+0x48>
  400d06:	68 06 00 00 00       	pushq  $0x6
  400d0b:	e9 80 ff ff ff       	jmpq   400c90 <_init+0x28>

0000000000400d10 <__stack_chk_fail@plt>:
  400d10:	ff 25 3a 43 20 00    	jmpq   *0x20433a(%rip)        # 605050 <_GLOBAL_OFFSET_TABLE_+0x50>
  400d16:	68 07 00 00 00       	pushq  $0x7
  400d1b:	e9 70 ff ff ff       	jmpq   400c90 <_init+0x28>

0000000000400d20 <mmap@plt>:
  400d20:	ff 25 32 43 20 00    	jmpq   *0x204332(%rip)        # 605058 <_GLOBAL_OFFSET_TABLE_+0x58>
  400d26:	68 08 00 00 00       	pushq  $0x8
  400d2b:	e9 60 ff ff ff       	jmpq   400c90 <_init+0x28>

0000000000400d30 <memset@plt>:
  400d30:	ff 25 2a 43 20 00    	jmpq   *0x20432a(%rip)        # 605060 <_GLOBAL_OFFSET_TABLE_+0x60>
  400d36:	68 09 00 00 00       	pushq  $0x9
  400d3b:	e9 50 ff ff ff       	jmpq   400c90 <_init+0x28>

0000000000400d40 <alarm@plt>:
  400d40:	ff 25 22 43 20 00    	jmpq   *0x204322(%rip)        # 605068 <_GLOBAL_OFFSET_TABLE_+0x68>
  400d46:	68 0a 00 00 00       	pushq  $0xa
  400d4b:	e9 40 ff ff ff       	jmpq   400c90 <_init+0x28>

0000000000400d50 <close@plt>:
  400d50:	ff 25 1a 43 20 00    	jmpq   *0x20431a(%rip)        # 605070 <_GLOBAL_OFFSET_TABLE_+0x70>
  400d56:	68 0b 00 00 00       	pushq  $0xb
  400d5b:	e9 30 ff ff ff       	jmpq   400c90 <_init+0x28>

0000000000400d60 <read@plt>:
  400d60:	ff 25 12 43 20 00    	jmpq   *0x204312(%rip)        # 605078 <_GLOBAL_OFFSET_TABLE_+0x78>
  400d66:	68 0c 00 00 00       	pushq  $0xc
  400d6b:	e9 20 ff ff ff       	jmpq   400c90 <_init+0x28>

0000000000400d70 <__libc_start_main@plt>:
  400d70:	ff 25 0a 43 20 00    	jmpq   *0x20430a(%rip)        # 605080 <_GLOBAL_OFFSET_TABLE_+0x80>
  400d76:	68 0d 00 00 00       	pushq  $0xd
  400d7b:	e9 10 ff ff ff       	jmpq   400c90 <_init+0x28>

0000000000400d80 <signal@plt>:
  400d80:	ff 25 02 43 20 00    	jmpq   *0x204302(%rip)        # 605088 <_GLOBAL_OFFSET_TABLE_+0x88>
  400d86:	68 0e 00 00 00       	pushq  $0xe
  400d8b:	e9 00 ff ff ff       	jmpq   400c90 <_init+0x28>

0000000000400d90 <gethostbyname@plt>:
  400d90:	ff 25 fa 42 20 00    	jmpq   *0x2042fa(%rip)        # 605090 <_GLOBAL_OFFSET_TABLE_+0x90>
  400d96:	68 0f 00 00 00       	pushq  $0xf
  400d9b:	e9 f0 fe ff ff       	jmpq   400c90 <_init+0x28>

0000000000400da0 <__memmove_chk@plt>:
  400da0:	ff 25 f2 42 20 00    	jmpq   *0x2042f2(%rip)        # 605098 <_GLOBAL_OFFSET_TABLE_+0x98>
  400da6:	68 10 00 00 00       	pushq  $0x10
  400dab:	e9 e0 fe ff ff       	jmpq   400c90 <_init+0x28>

0000000000400db0 <strtol@plt>:
  400db0:	ff 25 ea 42 20 00    	jmpq   *0x2042ea(%rip)        # 6050a0 <_GLOBAL_OFFSET_TABLE_+0xa0>
  400db6:	68 11 00 00 00       	pushq  $0x11
  400dbb:	e9 d0 fe ff ff       	jmpq   400c90 <_init+0x28>

0000000000400dc0 <memcpy@plt>:
  400dc0:	ff 25 e2 42 20 00    	jmpq   *0x2042e2(%rip)        # 6050a8 <_GLOBAL_OFFSET_TABLE_+0xa8>
  400dc6:	68 12 00 00 00       	pushq  $0x12
  400dcb:	e9 c0 fe ff ff       	jmpq   400c90 <_init+0x28>

0000000000400dd0 <time@plt>:
  400dd0:	ff 25 da 42 20 00    	jmpq   *0x2042da(%rip)        # 6050b0 <_GLOBAL_OFFSET_TABLE_+0xb0>
  400dd6:	68 13 00 00 00       	pushq  $0x13
  400ddb:	e9 b0 fe ff ff       	jmpq   400c90 <_init+0x28>

0000000000400de0 <random@plt>:
  400de0:	ff 25 d2 42 20 00    	jmpq   *0x2042d2(%rip)        # 6050b8 <_GLOBAL_OFFSET_TABLE_+0xb8>
  400de6:	68 14 00 00 00       	pushq  $0x14
  400deb:	e9 a0 fe ff ff       	jmpq   400c90 <_init+0x28>

0000000000400df0 <_IO_getc@plt>:
  400df0:	ff 25 ca 42 20 00    	jmpq   *0x2042ca(%rip)        # 6050c0 <_GLOBAL_OFFSET_TABLE_+0xc0>
  400df6:	68 15 00 00 00       	pushq  $0x15
  400dfb:	e9 90 fe ff ff       	jmpq   400c90 <_init+0x28>

0000000000400e00 <__isoc99_sscanf@plt>:
  400e00:	ff 25 c2 42 20 00    	jmpq   *0x2042c2(%rip)        # 6050c8 <_GLOBAL_OFFSET_TABLE_+0xc8>
  400e06:	68 16 00 00 00       	pushq  $0x16
  400e0b:	e9 80 fe ff ff       	jmpq   400c90 <_init+0x28>

0000000000400e10 <munmap@plt>:
  400e10:	ff 25 ba 42 20 00    	jmpq   *0x2042ba(%rip)        # 6050d0 <_GLOBAL_OFFSET_TABLE_+0xd0>
  400e16:	68 17 00 00 00       	pushq  $0x17
  400e1b:	e9 70 fe ff ff       	jmpq   400c90 <_init+0x28>

0000000000400e20 <__printf_chk@plt>:
  400e20:	ff 25 b2 42 20 00    	jmpq   *0x2042b2(%rip)        # 6050d8 <_GLOBAL_OFFSET_TABLE_+0xd8>
  400e26:	68 18 00 00 00       	pushq  $0x18
  400e2b:	e9 60 fe ff ff       	jmpq   400c90 <_init+0x28>

0000000000400e30 <fopen@plt>:
  400e30:	ff 25 aa 42 20 00    	jmpq   *0x2042aa(%rip)        # 6050e0 <_GLOBAL_OFFSET_TABLE_+0xe0>
  400e36:	68 19 00 00 00       	pushq  $0x19
  400e3b:	e9 50 fe ff ff       	jmpq   400c90 <_init+0x28>

0000000000400e40 <getopt@plt>:
  400e40:	ff 25 a2 42 20 00    	jmpq   *0x2042a2(%rip)        # 6050e8 <_GLOBAL_OFFSET_TABLE_+0xe8>
  400e46:	68 1a 00 00 00       	pushq  $0x1a
  400e4b:	e9 40 fe ff ff       	jmpq   400c90 <_init+0x28>

0000000000400e50 <strtoul@plt>:
  400e50:	ff 25 9a 42 20 00    	jmpq   *0x20429a(%rip)        # 6050f0 <_GLOBAL_OFFSET_TABLE_+0xf0>
  400e56:	68 1b 00 00 00       	pushq  $0x1b
  400e5b:	e9 30 fe ff ff       	jmpq   400c90 <_init+0x28>

0000000000400e60 <gethostname@plt>:
  400e60:	ff 25 92 42 20 00    	jmpq   *0x204292(%rip)        # 6050f8 <_GLOBAL_OFFSET_TABLE_+0xf8>
  400e66:	68 1c 00 00 00       	pushq  $0x1c
  400e6b:	e9 20 fe ff ff       	jmpq   400c90 <_init+0x28>

0000000000400e70 <exit@plt>:
  400e70:	ff 25 8a 42 20 00    	jmpq   *0x20428a(%rip)        # 605100 <_GLOBAL_OFFSET_TABLE_+0x100>
  400e76:	68 1d 00 00 00       	pushq  $0x1d
  400e7b:	e9 10 fe ff ff       	jmpq   400c90 <_init+0x28>

0000000000400e80 <connect@plt>:
  400e80:	ff 25 82 42 20 00    	jmpq   *0x204282(%rip)        # 605108 <_GLOBAL_OFFSET_TABLE_+0x108>
  400e86:	68 1e 00 00 00       	pushq  $0x1e
  400e8b:	e9 00 fe ff ff       	jmpq   400c90 <_init+0x28>

0000000000400e90 <__fprintf_chk@plt>:
  400e90:	ff 25 7a 42 20 00    	jmpq   *0x20427a(%rip)        # 605110 <_GLOBAL_OFFSET_TABLE_+0x110>
  400e96:	68 1f 00 00 00       	pushq  $0x1f
  400e9b:	e9 f0 fd ff ff       	jmpq   400c90 <_init+0x28>

0000000000400ea0 <__sprintf_chk@plt>:
  400ea0:	ff 25 72 42 20 00    	jmpq   *0x204272(%rip)        # 605118 <_GLOBAL_OFFSET_TABLE_+0x118>
  400ea6:	68 20 00 00 00       	pushq  $0x20
  400eab:	e9 e0 fd ff ff       	jmpq   400c90 <_init+0x28>

0000000000400eb0 <socket@plt>:
  400eb0:	ff 25 6a 42 20 00    	jmpq   *0x20426a(%rip)        # 605120 <_GLOBAL_OFFSET_TABLE_+0x120>
  400eb6:	68 21 00 00 00       	pushq  $0x21
  400ebb:	e9 d0 fd ff ff       	jmpq   400c90 <_init+0x28>

Disassembly of section .plt.got:

0000000000400ec0 <.plt.got>:
  400ec0:	ff 25 32 41 20 00    	jmpq   *0x204132(%rip)        # 604ff8 <_DYNAMIC+0x1e0>
  400ec6:	66 90                	xchg   %ax,%ax

Disassembly of section .text:

0000000000400ed0 <_start>:
  400ed0:	31 ed                	xor    %ebp,%ebp
  400ed2:	49 89 d1             	mov    %rdx,%r9
  400ed5:	5e                   	pop    %rsi
  400ed6:	48 89 e2             	mov    %rsp,%rdx
  400ed9:	48 83 e4 f0          	and    $0xfffffffffffffff0,%rsp
  400edd:	50                   	push   %rax
  400ede:	54                   	push   %rsp
  400edf:	49 c7 c0 80 2e 40 00 	mov    $0x402e80,%r8
  400ee6:	48 c7 c1 10 2e 40 00 	mov    $0x402e10,%rcx
  400eed:	48 c7 c7 d5 11 40 00 	mov    $0x4011d5,%rdi
  400ef4:	e8 77 fe ff ff       	callq  400d70 <__libc_start_main@plt>
  400ef9:	f4                   	hlt    
  400efa:	66 0f 1f 44 00 00    	nopw   0x0(%rax,%rax,1)

0000000000400f00 <deregister_tm_clones>:
  400f00:	b8 b7 54 60 00       	mov    $0x6054b7,%eax
  400f05:	55                   	push   %rbp
  400f06:	48 2d b0 54 60 00    	sub    $0x6054b0,%rax
  400f0c:	48 83 f8 0e          	cmp    $0xe,%rax
  400f10:	48 89 e5             	mov    %rsp,%rbp
  400f13:	76 1b                	jbe    400f30 <deregister_tm_clones+0x30>
  400f15:	b8 00 00 00 00       	mov    $0x0,%eax
  400f1a:	48 85 c0             	test   %rax,%rax
  400f1d:	74 11                	je     400f30 <deregister_tm_clones+0x30>
  400f1f:	5d                   	pop    %rbp
  400f20:	bf b0 54 60 00       	mov    $0x6054b0,%edi
  400f25:	ff e0                	jmpq   *%rax
  400f27:	66 0f 1f 84 00 00 00 	nopw   0x0(%rax,%rax,1)
  400f2e:	00 00 
  400f30:	5d                   	pop    %rbp
  400f31:	c3                   	retq   
  400f32:	0f 1f 40 00          	nopl   0x0(%rax)
  400f36:	66 2e 0f 1f 84 00 00 	nopw   %cs:0x0(%rax,%rax,1)
  400f3d:	00 00 00 

0000000000400f40 <register_tm_clones>:
  400f40:	be b0 54 60 00       	mov    $0x6054b0,%esi
  400f45:	55                   	push   %rbp
  400f46:	48 81 ee b0 54 60 00 	sub    $0x6054b0,%rsi
  400f4d:	48 c1 fe 03          	sar    $0x3,%rsi
  400f51:	48 89 e5             	mov    %rsp,%rbp
  400f54:	48 89 f0             	mov    %rsi,%rax
  400f57:	48 c1 e8 3f          	shr    $0x3f,%rax
  400f5b:	48 01 c6             	add    %rax,%rsi
  400f5e:	48 d1 fe             	sar    %rsi
  400f61:	74 15                	je     400f78 <register_tm_clones+0x38>
  400f63:	b8 00 00 00 00       	mov    $0x0,%eax
  400f68:	48 85 c0             	test   %rax,%rax
  400f6b:	74 0b                	je     400f78 <register_tm_clones+0x38>
  400f6d:	5d                   	pop    %rbp
  400f6e:	bf b0 54 60 00       	mov    $0x6054b0,%edi
  400f73:	ff e0                	jmpq   *%rax
  400f75:	0f 1f 00             	nopl   (%rax)
  400f78:	5d                   	pop    %rbp
  400f79:	c3                   	retq   
  400f7a:	66 0f 1f 44 00 00    	nopw   0x0(%rax,%rax,1)

0000000000400f80 <__do_global_dtors_aux>:
  400f80:	80 3d 61 45 20 00 00 	cmpb   $0x0,0x204561(%rip)        # 6054e8 <completed.7585>
  400f87:	75 11                	jne    400f9a <__do_global_dtors_aux+0x1a>
  400f89:	55                   	push   %rbp
  400f8a:	48 89 e5             	mov    %rsp,%rbp
  400f8d:	e8 6e ff ff ff       	callq  400f00 <deregister_tm_clones>
  400f92:	5d                   	pop    %rbp
  400f93:	c6 05 4e 45 20 00 01 	movb   $0x1,0x20454e(%rip)        # 6054e8 <completed.7585>
  400f9a:	f3 c3                	repz retq 
  400f9c:	0f 1f 40 00          	nopl   0x0(%rax)

0000000000400fa0 <frame_dummy>:
  400fa0:	bf 10 4e 60 00       	mov    $0x604e10,%edi
  400fa5:	48 83 3f 00          	cmpq   $0x0,(%rdi)
  400fa9:	75 05                	jne    400fb0 <frame_dummy+0x10>
  400fab:	eb 93                	jmp    400f40 <register_tm_clones>
  400fad:	0f 1f 00             	nopl   (%rax)
  400fb0:	b8 00 00 00 00       	mov    $0x0,%eax
  400fb5:	48 85 c0             	test   %rax,%rax
  400fb8:	74 f1                	je     400fab <frame_dummy+0xb>
  400fba:	55                   	push   %rbp
  400fbb:	48 89 e5             	mov    %rsp,%rbp
  400fbe:	ff d0                	callq  *%rax
  400fc0:	5d                   	pop    %rbp
  400fc1:	e9 7a ff ff ff       	jmpq   400f40 <register_tm_clones>

0000000000400fc6 <usage>:
  400fc6:	48 83 ec 08          	sub    $0x8,%rsp
  400fca:	48 89 fa             	mov    %rdi,%rdx
  400fcd:	83 3d 54 45 20 00 00 	cmpl   $0x0,0x204554(%rip)        # 605528 <is_checker>
  400fd4:	74 3e                	je     401014 <usage+0x4e>
  400fd6:	be 98 2e 40 00       	mov    $0x402e98,%esi
  400fdb:	bf 01 00 00 00       	mov    $0x1,%edi
  400fe0:	b8 00 00 00 00       	mov    $0x0,%eax
  400fe5:	e8 36 fe ff ff       	callq  400e20 <__printf_chk@plt>
  400fea:	bf d0 2e 40 00       	mov    $0x402ed0,%edi
  400fef:	e8 fc fc ff ff       	callq  400cf0 <puts@plt>
  400ff4:	bf 48 30 40 00       	mov    $0x403048,%edi
  400ff9:	e8 f2 fc ff ff       	callq  400cf0 <puts@plt>
  400ffe:	bf f8 2e 40 00       	mov    $0x402ef8,%edi
  401003:	e8 e8 fc ff ff       	callq  400cf0 <puts@plt>
  401008:	bf 62 30 40 00       	mov    $0x403062,%edi
  40100d:	e8 de fc ff ff       	callq  400cf0 <puts@plt>
  401012:	eb 32                	jmp    401046 <usage+0x80>
  401014:	be 7e 30 40 00       	mov    $0x40307e,%esi
  401019:	bf 01 00 00 00       	mov    $0x1,%edi
  40101e:	b8 00 00 00 00       	mov    $0x0,%eax
  401023:	e8 f8 fd ff ff       	callq  400e20 <__printf_chk@plt>
  401028:	bf 20 2f 40 00       	mov    $0x402f20,%edi
  40102d:	e8 be fc ff ff       	callq  400cf0 <puts@plt>
  401032:	bf 48 2f 40 00       	mov    $0x402f48,%edi
  401037:	e8 b4 fc ff ff       	callq  400cf0 <puts@plt>
  40103c:	bf 9c 30 40 00       	mov    $0x40309c,%edi
  401041:	e8 aa fc ff ff       	callq  400cf0 <puts@plt>
  401046:	bf 00 00 00 00       	mov    $0x0,%edi
  40104b:	e8 20 fe ff ff       	callq  400e70 <exit@plt>

0000000000401050 <initialize_target>:
  401050:	55                   	push   %rbp
  401051:	53                   	push   %rbx
  401052:	48 81 ec 18 21 00 00 	sub    $0x2118,%rsp
  401059:	89 f5                	mov    %esi,%ebp
  40105b:	64 48 8b 04 25 28 00 	mov    %fs:0x28,%rax
  401062:	00 00 
  401064:	48 89 84 24 08 21 00 	mov    %rax,0x2108(%rsp)
  40106b:	00 
  40106c:	31 c0                	xor    %eax,%eax
  40106e:	89 3d a4 44 20 00    	mov    %edi,0x2044a4(%rip)        # 605518 <check_level>
  401074:	8b 3d ee 40 20 00    	mov    0x2040ee(%rip),%edi        # 605168 <target_id>
  40107a:	e8 63 1d 00 00       	callq  402de2 <gencookie>
  40107f:	89 05 9f 44 20 00    	mov    %eax,0x20449f(%rip)        # 605524 <cookie>
  401085:	89 c7                	mov    %eax,%edi
  401087:	e8 56 1d 00 00       	callq  402de2 <gencookie>
  40108c:	89 05 8e 44 20 00    	mov    %eax,0x20448e(%rip)        # 605520 <authkey>
  401092:	8b 05 d0 40 20 00    	mov    0x2040d0(%rip),%eax        # 605168 <target_id>
  401098:	8d 78 01             	lea    0x1(%rax),%edi
  40109b:	e8 20 fc ff ff       	callq  400cc0 <srandom@plt>
  4010a0:	e8 3b fd ff ff       	callq  400de0 <random@plt>
  4010a5:	89 c7                	mov    %eax,%edi
  4010a7:	e8 03 03 00 00       	callq  4013af <scramble>
  4010ac:	89 c3                	mov    %eax,%ebx
  4010ae:	85 ed                	test   %ebp,%ebp
  4010b0:	74 18                	je     4010ca <initialize_target+0x7a>
  4010b2:	bf 00 00 00 00       	mov    $0x0,%edi
  4010b7:	e8 14 fd ff ff       	callq  400dd0 <time@plt>
  4010bc:	89 c7                	mov    %eax,%edi
  4010be:	e8 fd fb ff ff       	callq  400cc0 <srandom@plt>
  4010c3:	e8 18 fd ff ff       	callq  400de0 <random@plt>
  4010c8:	eb 05                	jmp    4010cf <initialize_target+0x7f>
  4010ca:	b8 00 00 00 00       	mov    $0x0,%eax
  4010cf:	01 c3                	add    %eax,%ebx
  4010d1:	0f b7 db             	movzwl %bx,%ebx
  4010d4:	8d 04 dd 00 01 00 00 	lea    0x100(,%rbx,8),%eax
  4010db:	89 c0                	mov    %eax,%eax
  4010dd:	48 89 05 bc 43 20 00 	mov    %rax,0x2043bc(%rip)        # 6054a0 <buf_offset>
  4010e4:	c6 05 5d 50 20 00 63 	movb   $0x63,0x20505d(%rip)        # 606148 <target_prefix>
  4010eb:	83 3d b6 43 20 00 00 	cmpl   $0x0,0x2043b6(%rip)        # 6054a8 <notify>
  4010f2:	0f 84 bb 00 00 00    	je     4011b3 <initialize_target+0x163>
  4010f8:	83 3d 29 44 20 00 00 	cmpl   $0x0,0x204429(%rip)        # 605528 <is_checker>
  4010ff:	0f 85 ae 00 00 00    	jne    4011b3 <initialize_target+0x163>
  401105:	be 00 01 00 00       	mov    $0x100,%esi
  40110a:	48 89 e7             	mov    %rsp,%rdi
  40110d:	e8 4e fd ff ff       	callq  400e60 <gethostname@plt>
  401112:	85 c0                	test   %eax,%eax
  401114:	74 25                	je     40113b <initialize_target+0xeb>
  401116:	bf 78 2f 40 00       	mov    $0x402f78,%edi
  40111b:	e8 d0 fb ff ff       	callq  400cf0 <puts@plt>
  401120:	bf 08 00 00 00       	mov    $0x8,%edi
  401125:	e8 46 fd ff ff       	callq  400e70 <exit@plt>
  40112a:	48 89 e6             	mov    %rsp,%rsi
  40112d:	e8 6e fb ff ff       	callq  400ca0 <strcasecmp@plt>
  401132:	85 c0                	test   %eax,%eax
  401134:	74 21                	je     401157 <initialize_target+0x107>
  401136:	83 c3 01             	add    $0x1,%ebx
  401139:	eb 05                	jmp    401140 <initialize_target+0xf0>
  40113b:	bb 00 00 00 00       	mov    $0x0,%ebx
  401140:	48 63 c3             	movslq %ebx,%rax
  401143:	48 8b 3c c5 80 51 60 	mov    0x605180(,%rax,8),%rdi
  40114a:	00 
  40114b:	48 85 ff             	test   %rdi,%rdi
  40114e:	75 da                	jne    40112a <initialize_target+0xda>
  401150:	b8 00 00 00 00       	mov    $0x0,%eax
  401155:	eb 05                	jmp    40115c <initialize_target+0x10c>
  401157:	b8 01 00 00 00       	mov    $0x1,%eax
  40115c:	85 c0                	test   %eax,%eax
  40115e:	75 1c                	jne    40117c <initialize_target+0x12c>
  401160:	48 89 e2             	mov    %rsp,%rdx
  401163:	be b0 2f 40 00       	mov    $0x402fb0,%esi
  401168:	bf 01 00 00 00       	mov    $0x1,%edi
  40116d:	e8 ae fc ff ff       	callq  400e20 <__printf_chk@plt>
  401172:	bf 08 00 00 00       	mov    $0x8,%edi
  401177:	e8 f4 fc ff ff       	callq  400e70 <exit@plt>
  40117c:	48 8d bc 24 00 01 00 	lea    0x100(%rsp),%rdi
  401183:	00 
  401184:	e8 c3 19 00 00       	callq  402b4c <init_driver>
  401189:	85 c0                	test   %eax,%eax
  40118b:	79 26                	jns    4011b3 <initialize_target+0x163>
  40118d:	48 8d 94 24 00 01 00 	lea    0x100(%rsp),%rdx
  401194:	00 
  401195:	be f0 2f 40 00       	mov    $0x402ff0,%esi
  40119a:	bf 01 00 00 00       	mov    $0x1,%edi
  40119f:	b8 00 00 00 00       	mov    $0x0,%eax
  4011a4:	e8 77 fc ff ff       	callq  400e20 <__printf_chk@plt>
  4011a9:	bf 08 00 00 00       	mov    $0x8,%edi
  4011ae:	e8 bd fc ff ff       	callq  400e70 <exit@plt>
  4011b3:	48 8b 84 24 08 21 00 	mov    0x2108(%rsp),%rax
  4011ba:	00 
  4011bb:	64 48 33 04 25 28 00 	xor    %fs:0x28,%rax
  4011c2:	00 00 
  4011c4:	74 05                	je     4011cb <initialize_target+0x17b>
  4011c6:	e8 45 fb ff ff       	callq  400d10 <__stack_chk_fail@plt>
  4011cb:	48 81 c4 18 21 00 00 	add    $0x2118,%rsp
  4011d2:	5b                   	pop    %rbx
  4011d3:	5d                   	pop    %rbp
  4011d4:	c3                   	retq   

00000000004011d5 <main>:
  4011d5:	41 56                	push   %r14
  4011d7:	41 55                	push   %r13
  4011d9:	41 54                	push   %r12
  4011db:	55                   	push   %rbp
  4011dc:	53                   	push   %rbx
  4011dd:	41 89 fc             	mov    %edi,%r12d
  4011e0:	48 89 f3             	mov    %rsi,%rbx
  4011e3:	be 6c 1e 40 00       	mov    $0x401e6c,%esi
  4011e8:	bf 0b 00 00 00       	mov    $0xb,%edi
  4011ed:	e8 8e fb ff ff       	callq  400d80 <signal@plt>
  4011f2:	be 1e 1e 40 00       	mov    $0x401e1e,%esi
  4011f7:	bf 07 00 00 00       	mov    $0x7,%edi
  4011fc:	e8 7f fb ff ff       	callq  400d80 <signal@plt>
  401201:	be ba 1e 40 00       	mov    $0x401eba,%esi
  401206:	bf 04 00 00 00       	mov    $0x4,%edi
  40120b:	e8 70 fb ff ff       	callq  400d80 <signal@plt>
  401210:	83 3d 11 43 20 00 00 	cmpl   $0x0,0x204311(%rip)        # 605528 <is_checker>
  401217:	74 20                	je     401239 <main+0x64>
  401219:	be 08 1f 40 00       	mov    $0x401f08,%esi
  40121e:	bf 0e 00 00 00       	mov    $0xe,%edi
  401223:	e8 58 fb ff ff       	callq  400d80 <signal@plt>
  401228:	bf 05 00 00 00       	mov    $0x5,%edi
  40122d:	e8 0e fb ff ff       	callq  400d40 <alarm@plt>
  401232:	bd ba 30 40 00       	mov    $0x4030ba,%ebp
  401237:	eb 05                	jmp    40123e <main+0x69>
  401239:	bd b5 30 40 00       	mov    $0x4030b5,%ebp
  40123e:	48 8b 05 7b 42 20 00 	mov    0x20427b(%rip),%rax        # 6054c0 <stdin@@GLIBC_2.2.5>
  401245:	48 89 05 c4 42 20 00 	mov    %rax,0x2042c4(%rip)        # 605510 <infile>
  40124c:	41 bd 00 00 00 00    	mov    $0x0,%r13d
  401252:	41 be 00 00 00 00    	mov    $0x0,%r14d
  401258:	e9 c6 00 00 00       	jmpq   401323 <main+0x14e>
  40125d:	83 e8 61             	sub    $0x61,%eax
  401260:	3c 10                	cmp    $0x10,%al
  401262:	0f 87 9c 00 00 00    	ja     401304 <main+0x12f>
  401268:	0f b6 c0             	movzbl %al,%eax
  40126b:	ff 24 c5 00 31 40 00 	jmpq   *0x403100(,%rax,8)
  401272:	48 8b 3b             	mov    (%rbx),%rdi
  401275:	e8 4c fd ff ff       	callq  400fc6 <usage>
  40127a:	be 0d 34 40 00       	mov    $0x40340d,%esi
  40127f:	48 8b 3d 42 42 20 00 	mov    0x204242(%rip),%rdi        # 6054c8 <optarg@@GLIBC_2.2.5>
  401286:	e8 a5 fb ff ff       	callq  400e30 <fopen@plt>
  40128b:	48 89 05 7e 42 20 00 	mov    %rax,0x20427e(%rip)        # 605510 <infile>
  401292:	48 85 c0             	test   %rax,%rax
  401295:	0f 85 88 00 00 00    	jne    401323 <main+0x14e>
  40129b:	48 8b 0d 26 42 20 00 	mov    0x204226(%rip),%rcx        # 6054c8 <optarg@@GLIBC_2.2.5>
  4012a2:	ba c2 30 40 00       	mov    $0x4030c2,%edx
  4012a7:	be 01 00 00 00       	mov    $0x1,%esi
  4012ac:	48 8b 3d 2d 42 20 00 	mov    0x20422d(%rip),%rdi        # 6054e0 <stderr@@GLIBC_2.2.5>
  4012b3:	e8 d8 fb ff ff       	callq  400e90 <__fprintf_chk@plt>
  4012b8:	b8 01 00 00 00       	mov    $0x1,%eax
  4012bd:	e9 e4 00 00 00       	jmpq   4013a6 <main+0x1d1>
  4012c2:	ba 10 00 00 00       	mov    $0x10,%edx
  4012c7:	be 00 00 00 00       	mov    $0x0,%esi
  4012cc:	48 8b 3d f5 41 20 00 	mov    0x2041f5(%rip),%rdi        # 6054c8 <optarg@@GLIBC_2.2.5>
  4012d3:	e8 78 fb ff ff       	callq  400e50 <strtoul@plt>
  4012d8:	41 89 c6             	mov    %eax,%r14d
  4012db:	eb 46                	jmp    401323 <main+0x14e>
  4012dd:	ba 0a 00 00 00       	mov    $0xa,%edx
  4012e2:	be 00 00 00 00       	mov    $0x0,%esi
  4012e7:	48 8b 3d da 41 20 00 	mov    0x2041da(%rip),%rdi        # 6054c8 <optarg@@GLIBC_2.2.5>
  4012ee:	e8 bd fa ff ff       	callq  400db0 <strtol@plt>
  4012f3:	41 89 c5             	mov    %eax,%r13d
  4012f6:	eb 2b                	jmp    401323 <main+0x14e>
  4012f8:	c7 05 a6 41 20 00 00 	movl   $0x0,0x2041a6(%rip)        # 6054a8 <notify>
  4012ff:	00 00 00 
  401302:	eb 1f                	jmp    401323 <main+0x14e>
  401304:	0f be d2             	movsbl %dl,%edx
  401307:	be df 30 40 00       	mov    $0x4030df,%esi
  40130c:	bf 01 00 00 00       	mov    $0x1,%edi
  401311:	b8 00 00 00 00       	mov    $0x0,%eax
  401316:	e8 05 fb ff ff       	callq  400e20 <__printf_chk@plt>
  40131b:	48 8b 3b             	mov    (%rbx),%rdi
  40131e:	e8 a3 fc ff ff       	callq  400fc6 <usage>
  401323:	48 89 ea             	mov    %rbp,%rdx
  401326:	48 89 de             	mov    %rbx,%rsi
  401329:	44 89 e7             	mov    %r12d,%edi
  40132c:	e8 0f fb ff ff       	callq  400e40 <getopt@plt>
  401331:	89 c2                	mov    %eax,%edx
  401333:	3c ff                	cmp    $0xff,%al
  401335:	0f 85 22 ff ff ff    	jne    40125d <main+0x88>
  40133b:	be 00 00 00 00       	mov    $0x0,%esi
  401340:	44 89 ef             	mov    %r13d,%edi
  401343:	e8 08 fd ff ff       	callq  401050 <initialize_target>
  401348:	83 3d d9 41 20 00 00 	cmpl   $0x0,0x2041d9(%rip)        # 605528 <is_checker>
  40134f:	74 2a                	je     40137b <main+0x1a6>
  401351:	44 3b 35 c8 41 20 00 	cmp    0x2041c8(%rip),%r14d        # 605520 <authkey>
  401358:	74 21                	je     40137b <main+0x1a6>
  40135a:	44 89 f2             	mov    %r14d,%edx
  40135d:	be 18 30 40 00       	mov    $0x403018,%esi
  401362:	bf 01 00 00 00       	mov    $0x1,%edi
  401367:	b8 00 00 00 00       	mov    $0x0,%eax
  40136c:	e8 af fa ff ff       	callq  400e20 <__printf_chk@plt>
  401371:	b8 00 00 00 00       	mov    $0x0,%eax
  401376:	e8 3f 07 00 00       	callq  401aba <check_fail>
  40137b:	8b 15 a3 41 20 00    	mov    0x2041a3(%rip),%edx        # 605524 <cookie>
  401381:	be f2 30 40 00       	mov    $0x4030f2,%esi
  401386:	bf 01 00 00 00       	mov    $0x1,%edi
  40138b:	b8 00 00 00 00       	mov    $0x0,%eax
  401390:	e8 8b fa ff ff       	callq  400e20 <__printf_chk@plt>
  401395:	48 8b 3d 04 41 20 00 	mov    0x204104(%rip),%rdi        # 6054a0 <buf_offset>
  40139c:	e8 67 0c 00 00       	callq  402008 <stable_launch>
  4013a1:	b8 00 00 00 00       	mov    $0x0,%eax
  4013a6:	5b                   	pop    %rbx
  4013a7:	5d                   	pop    %rbp
  4013a8:	41 5c                	pop    %r12
  4013aa:	41 5d                	pop    %r13
  4013ac:	41 5e                	pop    %r14
  4013ae:	c3                   	retq   

00000000004013af <scramble>:
  4013af:	48 83 ec 38          	sub    $0x38,%rsp
  4013b3:	64 48 8b 04 25 28 00 	mov    %fs:0x28,%rax
  4013ba:	00 00 
  4013bc:	48 89 44 24 28       	mov    %rax,0x28(%rsp)
  4013c1:	31 c0                	xor    %eax,%eax
  4013c3:	eb 10                	jmp    4013d5 <scramble+0x26>
  4013c5:	69 d0 4b 16 00 00    	imul   $0x164b,%eax,%edx
  4013cb:	01 fa                	add    %edi,%edx
  4013cd:	89 c1                	mov    %eax,%ecx
  4013cf:	89 14 8c             	mov    %edx,(%rsp,%rcx,4)
  4013d2:	83 c0 01             	add    $0x1,%eax
  4013d5:	83 f8 09             	cmp    $0x9,%eax
  4013d8:	76 eb                	jbe    4013c5 <scramble+0x16>
  4013da:	8b 04 24             	mov    (%rsp),%eax
  4013dd:	69 c0 2b c9 00 00    	imul   $0xc92b,%eax,%eax
  4013e3:	89 04 24             	mov    %eax,(%rsp)
  4013e6:	8b 04 24             	mov    (%rsp),%eax
  4013e9:	69 c0 c0 51 00 00    	imul   $0x51c0,%eax,%eax
  4013ef:	89 04 24             	mov    %eax,(%rsp)
  4013f2:	8b 44 24 18          	mov    0x18(%rsp),%eax
  4013f6:	69 c0 cb 35 00 00    	imul   $0x35cb,%eax,%eax
  4013fc:	89 44 24 18          	mov    %eax,0x18(%rsp)
  401400:	8b 44 24 10          	mov    0x10(%rsp),%eax
  401404:	69 c0 e0 31 00 00    	imul   $0x31e0,%eax,%eax
  40140a:	89 44 24 10          	mov    %eax,0x10(%rsp)
  40140e:	8b 44 24 24          	mov    0x24(%rsp),%eax
  401412:	69 c0 6b 2c 00 00    	imul   $0x2c6b,%eax,%eax
  401418:	89 44 24 24          	mov    %eax,0x24(%rsp)
  40141c:	8b 44 24 20          	mov    0x20(%rsp),%eax
  401420:	69 c0 af ae 00 00    	imul   $0xaeaf,%eax,%eax
  401426:	89 44 24 20          	mov    %eax,0x20(%rsp)
  40142a:	8b 44 24 24          	mov    0x24(%rsp),%eax
  40142e:	69 c0 d2 10 00 00    	imul   $0x10d2,%eax,%eax
  401434:	89 44 24 24          	mov    %eax,0x24(%rsp)
  401438:	8b 44 24 20          	mov    0x20(%rsp),%eax
  40143c:	69 c0 98 23 00 00    	imul   $0x2398,%eax,%eax
  401442:	89 44 24 20          	mov    %eax,0x20(%rsp)
  401446:	8b 44 24 0c          	mov    0xc(%rsp),%eax
  40144a:	69 c0 ee 82 00 00    	imul   $0x82ee,%eax,%eax
  401450:	89 44 24 0c          	mov    %eax,0xc(%rsp)
  401454:	8b 04 24             	mov    (%rsp),%eax
  401457:	69 c0 ec f4 00 00    	imul   $0xf4ec,%eax,%eax
  40145d:	89 04 24             	mov    %eax,(%rsp)
  401460:	8b 44 24 10          	mov    0x10(%rsp),%eax
  401464:	69 c0 7a d5 00 00    	imul   $0xd57a,%eax,%eax
  40146a:	89 44 24 10          	mov    %eax,0x10(%rsp)
  40146e:	8b 44 24 24          	mov    0x24(%rsp),%eax
  401472:	69 c0 e6 4c 00 00    	imul   $0x4ce6,%eax,%eax
  401478:	89 44 24 24          	mov    %eax,0x24(%rsp)
  40147c:	8b 44 24 08          	mov    0x8(%rsp),%eax
  401480:	69 c0 f5 f6 00 00    	imul   $0xf6f5,%eax,%eax
  401486:	89 44 24 08          	mov    %eax,0x8(%rsp)
  40148a:	8b 44 24 24          	mov    0x24(%rsp),%eax
  40148e:	69 c0 7b 7e 00 00    	imul   $0x7e7b,%eax,%eax
  401494:	89 44 24 24          	mov    %eax,0x24(%rsp)
  401498:	8b 44 24 24          	mov    0x24(%rsp),%eax
  40149c:	69 c0 74 8f 00 00    	imul   $0x8f74,%eax,%eax
  4014a2:	89 44 24 24          	mov    %eax,0x24(%rsp)
  4014a6:	8b 44 24 1c          	mov    0x1c(%rsp),%eax
  4014aa:	69 c0 3f 44 00 00    	imul   $0x443f,%eax,%eax
  4014b0:	89 44 24 1c          	mov    %eax,0x1c(%rsp)
  4014b4:	8b 44 24 0c          	mov    0xc(%rsp),%eax
  4014b8:	69 c0 8b 0b 00 00    	imul   $0xb8b,%eax,%eax
  4014be:	89 44 24 0c          	mov    %eax,0xc(%rsp)
  4014c2:	8b 44 24 20          	mov    0x20(%rsp),%eax
  4014c6:	69 c0 04 df 00 00    	imul   $0xdf04,%eax,%eax
  4014cc:	89 44 24 20          	mov    %eax,0x20(%rsp)
  4014d0:	8b 44 24 18          	mov    0x18(%rsp),%eax
  4014d4:	69 c0 a1 2e 00 00    	imul   $0x2ea1,%eax,%eax
  4014da:	89 44 24 18          	mov    %eax,0x18(%rsp)
  4014de:	8b 04 24             	mov    (%rsp),%eax
  4014e1:	69 c0 ab 70 00 00    	imul   $0x70ab,%eax,%eax
  4014e7:	89 04 24             	mov    %eax,(%rsp)
  4014ea:	8b 44 24 18          	mov    0x18(%rsp),%eax
  4014ee:	69 c0 a6 67 00 00    	imul   $0x67a6,%eax,%eax
  4014f4:	89 44 24 18          	mov    %eax,0x18(%rsp)
  4014f8:	8b 44 24 10          	mov    0x10(%rsp),%eax
  4014fc:	69 c0 ce e8 00 00    	imul   $0xe8ce,%eax,%eax
  401502:	89 44 24 10          	mov    %eax,0x10(%rsp)
  401506:	8b 44 24 18          	mov    0x18(%rsp),%eax
  40150a:	69 c0 1b 38 00 00    	imul   $0x381b,%eax,%eax
  401510:	89 44 24 18          	mov    %eax,0x18(%rsp)
  401514:	8b 04 24             	mov    (%rsp),%eax
  401517:	69 c0 02 c8 00 00    	imul   $0xc802,%eax,%eax
  40151d:	89 04 24             	mov    %eax,(%rsp)
  401520:	8b 44 24 20          	mov    0x20(%rsp),%eax
  401524:	69 c0 fd 3a 00 00    	imul   $0x3afd,%eax,%eax
  40152a:	89 44 24 20          	mov    %eax,0x20(%rsp)
  40152e:	8b 44 24 08          	mov    0x8(%rsp),%eax
  401532:	69 c0 4a 6c 00 00    	imul   $0x6c4a,%eax,%eax
  401538:	89 44 24 08          	mov    %eax,0x8(%rsp)
  40153c:	8b 44 24 10          	mov    0x10(%rsp),%eax
  401540:	69 c0 9e 88 00 00    	imul   $0x889e,%eax,%eax
  401546:	89 44 24 10          	mov    %eax,0x10(%rsp)
  40154a:	8b 44 24 1c          	mov    0x1c(%rsp),%eax
  40154e:	69 c0 a3 b0 00 00    	imul   $0xb0a3,%eax,%eax
  401554:	89 44 24 1c          	mov    %eax,0x1c(%rsp)
  401558:	8b 44 24 08          	mov    0x8(%rsp),%eax
  40155c:	69 c0 e4 36 00 00    	imul   $0x36e4,%eax,%eax
  401562:	89 44 24 08          	mov    %eax,0x8(%rsp)
  401566:	8b 44 24 14          	mov    0x14(%rsp),%eax
  40156a:	69 c0 87 ad 00 00    	imul   $0xad87,%eax,%eax
  401570:	89 44 24 14          	mov    %eax,0x14(%rsp)
  401574:	8b 44 24 08          	mov    0x8(%rsp),%eax
  401578:	69 c0 51 04 00 00    	imul   $0x451,%eax,%eax
  40157e:	89 44 24 08          	mov    %eax,0x8(%rsp)
  401582:	8b 44 24 0c          	mov    0xc(%rsp),%eax
  401586:	69 c0 f8 1e 00 00    	imul   $0x1ef8,%eax,%eax
  40158c:	89 44 24 0c          	mov    %eax,0xc(%rsp)
  401590:	8b 44 24 10          	mov    0x10(%rsp),%eax
  401594:	69 c0 c5 87 00 00    	imul   $0x87c5,%eax,%eax
  40159a:	89 44 24 10          	mov    %eax,0x10(%rsp)
  40159e:	8b 44 24 20          	mov    0x20(%rsp),%eax
  4015a2:	69 c0 33 51 00 00    	imul   $0x5133,%eax,%eax
  4015a8:	89 44 24 20          	mov    %eax,0x20(%rsp)
  4015ac:	8b 44 24 20          	mov    0x20(%rsp),%eax
  4015b0:	69 c0 e1 0e 00 00    	imul   $0xee1,%eax,%eax
  4015b6:	89 44 24 20          	mov    %eax,0x20(%rsp)
  4015ba:	8b 44 24 24          	mov    0x24(%rsp),%eax
  4015be:	69 c0 72 11 00 00    	imul   $0x1172,%eax,%eax
  4015c4:	89 44 24 24          	mov    %eax,0x24(%rsp)
  4015c8:	8b 44 24 04          	mov    0x4(%rsp),%eax
  4015cc:	69 c0 39 e1 00 00    	imul   $0xe139,%eax,%eax
  4015d2:	89 44 24 04          	mov    %eax,0x4(%rsp)
  4015d6:	8b 44 24 08          	mov    0x8(%rsp),%eax
  4015da:	69 c0 ff ee 00 00    	imul   $0xeeff,%eax,%eax
  4015e0:	89 44 24 08          	mov    %eax,0x8(%rsp)
  4015e4:	8b 44 24 24          	mov    0x24(%rsp),%eax
  4015e8:	69 c0 a7 06 00 00    	imul   $0x6a7,%eax,%eax
  4015ee:	89 44 24 24          	mov    %eax,0x24(%rsp)
  4015f2:	8b 44 24 04          	mov    0x4(%rsp),%eax
  4015f6:	69 c0 5e d4 00 00    	imul   $0xd45e,%eax,%eax
  4015fc:	89 44 24 04          	mov    %eax,0x4(%rsp)
  401600:	8b 44 24 18          	mov    0x18(%rsp),%eax
  401604:	69 c0 f0 73 00 00    	imul   $0x73f0,%eax,%eax
  40160a:	89 44 24 18          	mov    %eax,0x18(%rsp)
  40160e:	8b 44 24 10          	mov    0x10(%rsp),%eax
  401612:	69 c0 1d 52 00 00    	imul   $0x521d,%eax,%eax
  401618:	89 44 24 10          	mov    %eax,0x10(%rsp)
  40161c:	8b 44 24 20          	mov    0x20(%rsp),%eax
  401620:	69 c0 d8 f9 00 00    	imul   $0xf9d8,%eax,%eax
  401626:	89 44 24 20          	mov    %eax,0x20(%rsp)
  40162a:	8b 44 24 24          	mov    0x24(%rsp),%eax
  40162e:	69 c0 22 7c 00 00    	imul   $0x7c22,%eax,%eax
  401634:	89 44 24 24          	mov    %eax,0x24(%rsp)
  401638:	8b 44 24 0c          	mov    0xc(%rsp),%eax
  40163c:	69 c0 de 31 00 00    	imul   $0x31de,%eax,%eax
  401642:	89 44 24 0c          	mov    %eax,0xc(%rsp)
  401646:	8b 44 24 0c          	mov    0xc(%rsp),%eax
  40164a:	69 c0 16 f7 00 00    	imul   $0xf716,%eax,%eax
  401650:	89 44 24 0c          	mov    %eax,0xc(%rsp)
  401654:	8b 04 24             	mov    (%rsp),%eax
  401657:	69 c0 6f 1b 00 00    	imul   $0x1b6f,%eax,%eax
  40165d:	89 04 24             	mov    %eax,(%rsp)
  401660:	8b 44 24 10          	mov    0x10(%rsp),%eax
  401664:	69 c0 0c 46 00 00    	imul   $0x460c,%eax,%eax
  40166a:	89 44 24 10          	mov    %eax,0x10(%rsp)
  40166e:	8b 04 24             	mov    (%rsp),%eax
  401671:	69 c0 0b 14 00 00    	imul   $0x140b,%eax,%eax
  401677:	89 04 24             	mov    %eax,(%rsp)
  40167a:	8b 44 24 20          	mov    0x20(%rsp),%eax
  40167e:	69 c0 9a 59 00 00    	imul   $0x599a,%eax,%eax
  401684:	89 44 24 20          	mov    %eax,0x20(%rsp)
  401688:	8b 44 24 10          	mov    0x10(%rsp),%eax
  40168c:	69 c0 1e 59 00 00    	imul   $0x591e,%eax,%eax
  401692:	89 44 24 10          	mov    %eax,0x10(%rsp)
  401696:	8b 44 24 14          	mov    0x14(%rsp),%eax
  40169a:	69 c0 73 99 00 00    	imul   $0x9973,%eax,%eax
  4016a0:	89 44 24 14          	mov    %eax,0x14(%rsp)
  4016a4:	8b 44 24 18          	mov    0x18(%rsp),%eax
  4016a8:	69 c0 4d 65 00 00    	imul   $0x654d,%eax,%eax
  4016ae:	89 44 24 18          	mov    %eax,0x18(%rsp)
  4016b2:	8b 44 24 1c          	mov    0x1c(%rsp),%eax
  4016b6:	69 c0 ac 53 00 00    	imul   $0x53ac,%eax,%eax
  4016bc:	89 44 24 1c          	mov    %eax,0x1c(%rsp)
  4016c0:	8b 44 24 08          	mov    0x8(%rsp),%eax
  4016c4:	69 c0 73 3f 00 00    	imul   $0x3f73,%eax,%eax
  4016ca:	89 44 24 08          	mov    %eax,0x8(%rsp)
  4016ce:	8b 44 24 1c          	mov    0x1c(%rsp),%eax
  4016d2:	69 c0 9a ad 00 00    	imul   $0xad9a,%eax,%eax
  4016d8:	89 44 24 1c          	mov    %eax,0x1c(%rsp)
  4016dc:	8b 44 24 14          	mov    0x14(%rsp),%eax
  4016e0:	69 c0 b3 68 00 00    	imul   $0x68b3,%eax,%eax
  4016e6:	89 44 24 14          	mov    %eax,0x14(%rsp)
  4016ea:	8b 44 24 04          	mov    0x4(%rsp),%eax
  4016ee:	69 c0 f2 af 00 00    	imul   $0xaff2,%eax,%eax
  4016f4:	89 44 24 04          	mov    %eax,0x4(%rsp)
  4016f8:	8b 44 24 20          	mov    0x20(%rsp),%eax
  4016fc:	69 c0 77 02 00 00    	imul   $0x277,%eax,%eax
  401702:	89 44 24 20          	mov    %eax,0x20(%rsp)
  401706:	8b 44 24 1c          	mov    0x1c(%rsp),%eax
  40170a:	69 c0 48 93 00 00    	imul   $0x9348,%eax,%eax
  401710:	89 44 24 1c          	mov    %eax,0x1c(%rsp)
  401714:	8b 44 24 18          	mov    0x18(%rsp),%eax
  401718:	69 c0 bd 55 00 00    	imul   $0x55bd,%eax,%eax
  40171e:	89 44 24 18          	mov    %eax,0x18(%rsp)
  401722:	8b 44 24 20          	mov    0x20(%rsp),%eax
  401726:	69 c0 84 6a 00 00    	imul   $0x6a84,%eax,%eax
  40172c:	89 44 24 20          	mov    %eax,0x20(%rsp)
  401730:	8b 44 24 1c          	mov    0x1c(%rsp),%eax
  401734:	69 c0 6d a0 00 00    	imul   $0xa06d,%eax,%eax
  40173a:	89 44 24 1c          	mov    %eax,0x1c(%rsp)
  40173e:	8b 44 24 10          	mov    0x10(%rsp),%eax
  401742:	69 c0 60 14 00 00    	imul   $0x1460,%eax,%eax
  401748:	89 44 24 10          	mov    %eax,0x10(%rsp)
  40174c:	8b 44 24 20          	mov    0x20(%rsp),%eax
  401750:	69 c0 d1 47 00 00    	imul   $0x47d1,%eax,%eax
  401756:	89 44 24 20          	mov    %eax,0x20(%rsp)
  40175a:	8b 44 24 1c          	mov    0x1c(%rsp),%eax
  40175e:	69 c0 64 d7 00 00    	imul   $0xd764,%eax,%eax
  401764:	89 44 24 1c          	mov    %eax,0x1c(%rsp)
  401768:	8b 44 24 14          	mov    0x14(%rsp),%eax
  40176c:	69 c0 06 d9 00 00    	imul   $0xd906,%eax,%eax
  401772:	89 44 24 14          	mov    %eax,0x14(%rsp)
  401776:	8b 04 24             	mov    (%rsp),%eax
  401779:	69 c0 47 db 00 00    	imul   $0xdb47,%eax,%eax
  40177f:	89 04 24             	mov    %eax,(%rsp)
  401782:	8b 44 24 04          	mov    0x4(%rsp),%eax
  401786:	69 c0 49 f9 00 00    	imul   $0xf949,%eax,%eax
  40178c:	89 44 24 04          	mov    %eax,0x4(%rsp)
  401790:	8b 44 24 20          	mov    0x20(%rsp),%eax
  401794:	69 c0 49 aa 00 00    	imul   $0xaa49,%eax,%eax
  40179a:	89 44 24 20          	mov    %eax,0x20(%rsp)
  40179e:	8b 44 24 24          	mov    0x24(%rsp),%eax
  4017a2:	69 c0 fd 56 00 00    	imul   $0x56fd,%eax,%eax
  4017a8:	89 44 24 24          	mov    %eax,0x24(%rsp)
  4017ac:	8b 44 24 18          	mov    0x18(%rsp),%eax
  4017b0:	69 c0 20 ec 00 00    	imul   $0xec20,%eax,%eax
  4017b6:	89 44 24 18          	mov    %eax,0x18(%rsp)
  4017ba:	8b 04 24             	mov    (%rsp),%eax
  4017bd:	69 c0 9a 57 00 00    	imul   $0x579a,%eax,%eax
  4017c3:	89 04 24             	mov    %eax,(%rsp)
  4017c6:	8b 44 24 04          	mov    0x4(%rsp),%eax
  4017ca:	69 c0 3c 22 00 00    	imul   $0x223c,%eax,%eax
  4017d0:	89 44 24 04          	mov    %eax,0x4(%rsp)
  4017d4:	8b 04 24             	mov    (%rsp),%eax
  4017d7:	69 c0 26 c8 00 00    	imul   $0xc826,%eax,%eax
  4017dd:	89 04 24             	mov    %eax,(%rsp)
  4017e0:	8b 44 24 04          	mov    0x4(%rsp),%eax
  4017e4:	69 c0 66 8e 00 00    	imul   $0x8e66,%eax,%eax
  4017ea:	89 44 24 04          	mov    %eax,0x4(%rsp)
  4017ee:	8b 04 24             	mov    (%rsp),%eax
  4017f1:	69 c0 e3 3f 00 00    	imul   $0x3fe3,%eax,%eax
  4017f7:	89 04 24             	mov    %eax,(%rsp)
  4017fa:	8b 44 24 20          	mov    0x20(%rsp),%eax
  4017fe:	69 c0 0f 8f 00 00    	imul   $0x8f0f,%eax,%eax
  401804:	89 44 24 20          	mov    %eax,0x20(%rsp)
  401808:	8b 44 24 0c          	mov    0xc(%rsp),%eax
  40180c:	69 c0 7b a9 00 00    	imul   $0xa97b,%eax,%eax
  401812:	89 44 24 0c          	mov    %eax,0xc(%rsp)
  401816:	8b 44 24 20          	mov    0x20(%rsp),%eax
  40181a:	69 c0 c8 94 00 00    	imul   $0x94c8,%eax,%eax
  401820:	89 44 24 20          	mov    %eax,0x20(%rsp)
  401824:	8b 04 24             	mov    (%rsp),%eax
  401827:	69 c0 69 11 00 00    	imul   $0x1169,%eax,%eax
  40182d:	89 04 24             	mov    %eax,(%rsp)
  401830:	ba 00 00 00 00       	mov    $0x0,%edx
  401835:	b8 00 00 00 00       	mov    $0x0,%eax
  40183a:	eb 0a                	jmp    401846 <scramble+0x497>
  40183c:	89 d1                	mov    %edx,%ecx
  40183e:	8b 0c 8c             	mov    (%rsp,%rcx,4),%ecx
  401841:	01 c8                	add    %ecx,%eax
  401843:	83 c2 01             	add    $0x1,%edx
  401846:	83 fa 09             	cmp    $0x9,%edx
  401849:	76 f1                	jbe    40183c <scramble+0x48d>
  40184b:	48 8b 74 24 28       	mov    0x28(%rsp),%rsi
  401850:	64 48 33 34 25 28 00 	xor    %fs:0x28,%rsi
  401857:	00 00 
  401859:	74 05                	je     401860 <scramble+0x4b1>
  40185b:	e8 b0 f4 ff ff       	callq  400d10 <__stack_chk_fail@plt>
  401860:	48 83 c4 38          	add    $0x38,%rsp
  401864:	c3                   	retq   

0000000000401865 <getbuf>:
  401865:	48 83 ec 28          	sub    $0x28,%rsp
  401869:	48 89 e7             	mov    %rsp,%rdi
  40186c:	e8 7e 02 00 00       	callq  401aef <Gets>	//rsp = 0x55658ad8
  401871:	b8 01 00 00 00       	mov    $0x1,%eax
  401876:	48 83 c4 28          	add    $0x28,%rsp
  40187a:	c3                   	retq   

000000000040187b <touch1>:
  40187b:	48 83 ec 08          	sub    $0x8,%rsp
  40187f:	c7 05 93 3c 20 00 01 	movl   $0x1,0x203c93(%rip)        # 60551c <vlevel>
  401886:	00 00 00 
  401889:	bf 66 32 40 00       	mov    $0x403266,%edi
  40188e:	e8 5d f4 ff ff       	callq  400cf0 <puts@plt>
  401893:	bf 01 00 00 00       	mov    $0x1,%edi
  401898:	e8 97 04 00 00       	callq  401d34 <validate>
  40189d:	bf 00 00 00 00       	mov    $0x0,%edi
  4018a2:	e8 c9 f5 ff ff       	callq  400e70 <exit@plt>

00000000004018a7 <touch2>:
  4018a7:	48 83 ec 08          	sub    $0x8,%rsp
  4018ab:	89 fa                	mov    %edi,%edx
  4018ad:	c7 05 65 3c 20 00 02 	movl   $0x2,0x203c65(%rip)        # 60551c <vlevel>
  4018b4:	00 00 00 
  4018b7:	39 3d 67 3c 20 00    	cmp    %edi,0x203c67(%rip)        # 605524 <cookie>
  4018bd:	75 20                	jne    4018df <touch2+0x38>
  4018bf:	be 88 32 40 00       	mov    $0x403288,%esi
  4018c4:	bf 01 00 00 00       	mov    $0x1,%edi
  4018c9:	b8 00 00 00 00       	mov    $0x0,%eax
  4018ce:	e8 4d f5 ff ff       	callq  400e20 <__printf_chk@plt>
  4018d3:	bf 02 00 00 00       	mov    $0x2,%edi
  4018d8:	e8 57 04 00 00       	callq  401d34 <validate>
  4018dd:	eb 1e                	jmp    4018fd <touch2+0x56>
  4018df:	be b0 32 40 00       	mov    $0x4032b0,%esi
  4018e4:	bf 01 00 00 00       	mov    $0x1,%edi
  4018e9:	b8 00 00 00 00       	mov    $0x0,%eax
  4018ee:	e8 2d f5 ff ff       	callq  400e20 <__printf_chk@plt>
  4018f3:	bf 02 00 00 00       	mov    $0x2,%edi
  4018f8:	e8 f9 04 00 00       	callq  401df6 <fail>
  4018fd:	bf 00 00 00 00       	mov    $0x0,%edi
  401902:	e8 69 f5 ff ff       	callq  400e70 <exit@plt>

0000000000401907 <hexmatch>:
  401907:	41 54                	push   %r12
  401909:	55                   	push   %rbp
  40190a:	53                   	push   %rbx
  40190b:	48 83 c4 80          	add    $0xffffffffffffff80,%rsp
  40190f:	89 fd                	mov    %edi,%ebp
  401911:	48 89 f3             	mov    %rsi,%rbx
  401914:	64 48 8b 04 25 28 00 	mov    %fs:0x28,%rax
  40191b:	00 00 
  40191d:	48 89 44 24 78       	mov    %rax,0x78(%rsp)
  401922:	31 c0                	xor    %eax,%eax
  401924:	e8 b7 f4 ff ff       	callq  400de0 <random@plt>
  401929:	48 89 c1             	mov    %rax,%rcx
  40192c:	48 ba 0b d7 a3 70 3d 	movabs $0xa3d70a3d70a3d70b,%rdx
  401933:	0a d7 a3 
  401936:	48 f7 ea             	imul   %rdx
  401939:	48 01 ca             	add    %rcx,%rdx
  40193c:	48 c1 fa 06          	sar    $0x6,%rdx
  401940:	48 89 c8             	mov    %rcx,%rax
  401943:	48 c1 f8 3f          	sar    $0x3f,%rax
  401947:	48 29 c2             	sub    %rax,%rdx
  40194a:	48 8d 04 92          	lea    (%rdx,%rdx,4),%rax
  40194e:	48 8d 14 80          	lea    (%rax,%rax,4),%rdx
  401952:	48 8d 04 95 00 00 00 	lea    0x0(,%rdx,4),%rax
  401959:	00 
  40195a:	48 29 c1             	sub    %rax,%rcx
  40195d:	4c 8d 24 0c          	lea    (%rsp,%rcx,1),%r12
  401961:	41 89 e8             	mov    %ebp,%r8d
  401964:	b9 83 32 40 00       	mov    $0x403283,%ecx
  401969:	48 c7 c2 ff ff ff ff 	mov    $0xffffffffffffffff,%rdx
  401970:	be 01 00 00 00       	mov    $0x1,%esi
  401975:	4c 89 e7             	mov    %r12,%rdi
  401978:	b8 00 00 00 00       	mov    $0x0,%eax
  40197d:	e8 1e f5 ff ff       	callq  400ea0 <__sprintf_chk@plt>
  401982:	ba 09 00 00 00       	mov    $0x9,%edx
  401987:	4c 89 e6             	mov    %r12,%rsi
  40198a:	48 89 df             	mov    %rbx,%rdi
  40198d:	e8 3e f3 ff ff       	callq  400cd0 <strncmp@plt>
  401992:	85 c0                	test   %eax,%eax
  401994:	0f 94 c0             	sete   %al
  401997:	48 8b 5c 24 78       	mov    0x78(%rsp),%rbx
  40199c:	64 48 33 1c 25 28 00 	xor    %fs:0x28,%rbx
  4019a3:	00 00 
  4019a5:	74 05                	je     4019ac <hexmatch+0xa5>
  4019a7:	e8 64 f3 ff ff       	callq  400d10 <__stack_chk_fail@plt>
  4019ac:	0f b6 c0             	movzbl %al,%eax
  4019af:	48 83 ec 80          	sub    $0xffffffffffffff80,%rsp
  4019b3:	5b                   	pop    %rbx
  4019b4:	5d                   	pop    %rbp
  4019b5:	41 5c                	pop    %r12
  4019b7:	c3                   	retq   

00000000004019b8 <touch3>:
  4019b8:	53                   	push   %rbx
  4019b9:	48 89 fb             	mov    %rdi,%rbx
  4019bc:	c7 05 56 3b 20 00 03 	movl   $0x3,0x203b56(%rip)        # 60551c <vlevel>
  4019c3:	00 00 00 
  4019c6:	48 89 fe             	mov    %rdi,%rsi
  4019c9:	8b 3d 55 3b 20 00    	mov    0x203b55(%rip),%edi        # 605524 <cookie>
  4019cf:	e8 33 ff ff ff       	callq  401907 <hexmatch>
  4019d4:	85 c0                	test   %eax,%eax
  4019d6:	74 23                	je     4019fb <touch3+0x43>
  4019d8:	48 89 da             	mov    %rbx,%rdx
  4019db:	be d8 32 40 00       	mov    $0x4032d8,%esi
  4019e0:	bf 01 00 00 00       	mov    $0x1,%edi
  4019e5:	b8 00 00 00 00       	mov    $0x0,%eax
  4019ea:	e8 31 f4 ff ff       	callq  400e20 <__printf_chk@plt>
  4019ef:	bf 03 00 00 00       	mov    $0x3,%edi
  4019f4:	e8 3b 03 00 00       	callq  401d34 <validate>
  4019f9:	eb 21                	jmp    401a1c <touch3+0x64>
  4019fb:	48 89 da             	mov    %rbx,%rdx
  4019fe:	be 00 33 40 00       	mov    $0x403300,%esi
  401a03:	bf 01 00 00 00       	mov    $0x1,%edi
  401a08:	b8 00 00 00 00       	mov    $0x0,%eax
  401a0d:	e8 0e f4 ff ff       	callq  400e20 <__printf_chk@plt>
  401a12:	bf 03 00 00 00       	mov    $0x3,%edi
  401a17:	e8 da 03 00 00       	callq  401df6 <fail>
  401a1c:	bf 00 00 00 00       	mov    $0x0,%edi
  401a21:	e8 4a f4 ff ff       	callq  400e70 <exit@plt>

0000000000401a26 <test>:
  401a26:	48 83 ec 08          	sub    $0x8,%rsp
  401a2a:	b8 00 00 00 00       	mov    $0x0,%eax
  401a2f:	e8 31 fe ff ff       	callq  401865 <getbuf>
  401a34:	89 c2                	mov    %eax,%edx
  401a36:	be 28 33 40 00       	mov    $0x403328,%esi
  401a3b:	bf 01 00 00 00       	mov    $0x1,%edi
  401a40:	b8 00 00 00 00       	mov    $0x0,%eax
  401a45:	e8 d6 f3 ff ff       	callq  400e20 <__printf_chk@plt>
  401a4a:	48 83 c4 08          	add    $0x8,%rsp
  401a4e:	c3                   	retq   

0000000000401a4f <save_char>:
  401a4f:	8b 05 ef 46 20 00    	mov    0x2046ef(%rip),%eax        # 606144 <gets_cnt>
  401a55:	3d ff 03 00 00       	cmp    $0x3ff,%eax
  401a5a:	7f 49                	jg     401aa5 <save_char+0x56>
  401a5c:	8d 14 40             	lea    (%rax,%rax,2),%edx
  401a5f:	89 f9                	mov    %edi,%ecx
  401a61:	c0 e9 04             	shr    $0x4,%cl
  401a64:	83 e1 0f             	and    $0xf,%ecx
  401a67:	0f b6 b1 50 36 40 00 	movzbl 0x403650(%rcx),%esi
  401a6e:	48 63 ca             	movslq %edx,%rcx
  401a71:	40 88 b1 40 55 60 00 	mov    %sil,0x605540(%rcx)
  401a78:	8d 4a 01             	lea    0x1(%rdx),%ecx
  401a7b:	83 e7 0f             	and    $0xf,%edi
  401a7e:	0f b6 b7 50 36 40 00 	movzbl 0x403650(%rdi),%esi
  401a85:	48 63 c9             	movslq %ecx,%rcx
  401a88:	40 88 b1 40 55 60 00 	mov    %sil,0x605540(%rcx)
  401a8f:	83 c2 02             	add    $0x2,%edx
  401a92:	48 63 d2             	movslq %edx,%rdx
  401a95:	c6 82 40 55 60 00 20 	movb   $0x20,0x605540(%rdx)
  401a9c:	83 c0 01             	add    $0x1,%eax
  401a9f:	89 05 9f 46 20 00    	mov    %eax,0x20469f(%rip)        # 606144 <gets_cnt>
  401aa5:	f3 c3                	repz retq 

0000000000401aa7 <save_term>:
  401aa7:	8b 05 97 46 20 00    	mov    0x204697(%rip),%eax        # 606144 <gets_cnt>
  401aad:	8d 04 40             	lea    (%rax,%rax,2),%eax
  401ab0:	48 98                	cltq   
  401ab2:	c6 80 40 55 60 00 00 	movb   $0x0,0x605540(%rax)
  401ab9:	c3                   	retq   

0000000000401aba <check_fail>:
  401aba:	48 83 ec 08          	sub    $0x8,%rsp
  401abe:	0f be 15 83 46 20 00 	movsbl 0x204683(%rip),%edx        # 606148 <target_prefix>
  401ac5:	41 b8 40 55 60 00    	mov    $0x605540,%r8d
  401acb:	8b 0d 47 3a 20 00    	mov    0x203a47(%rip),%ecx        # 605518 <check_level>
  401ad1:	be 4b 33 40 00       	mov    $0x40334b,%esi
  401ad6:	bf 01 00 00 00       	mov    $0x1,%edi
  401adb:	b8 00 00 00 00       	mov    $0x0,%eax
  401ae0:	e8 3b f3 ff ff       	callq  400e20 <__printf_chk@plt>
  401ae5:	bf 01 00 00 00       	mov    $0x1,%edi
  401aea:	e8 81 f3 ff ff       	callq  400e70 <exit@plt>

0000000000401aef <Gets>:
  401aef:	41 54                	push   %r12
  401af1:	55                   	push   %rbp
  401af2:	53                   	push   %rbx
  401af3:	49 89 fc             	mov    %rdi,%r12
  401af6:	c7 05 44 46 20 00 00 	movl   $0x0,0x204644(%rip)        # 606144 <gets_cnt>
  401afd:	00 00 00 
  401b00:	48 89 fb             	mov    %rdi,%rbx
  401b03:	eb 11                	jmp    401b16 <Gets+0x27>
  401b05:	48 8d 6b 01          	lea    0x1(%rbx),%rbp
  401b09:	88 03                	mov    %al,(%rbx)
  401b0b:	0f b6 f8             	movzbl %al,%edi
  401b0e:	e8 3c ff ff ff       	callq  401a4f <save_char>
  401b13:	48 89 eb             	mov    %rbp,%rbx
  401b16:	48 8b 3d f3 39 20 00 	mov    0x2039f3(%rip),%rdi        # 605510 <infile>
  401b1d:	e8 ce f2 ff ff       	callq  400df0 <_IO_getc@plt>
  401b22:	83 f8 ff             	cmp    $0xffffffff,%eax
  401b25:	74 05                	je     401b2c <Gets+0x3d>
  401b27:	83 f8 0a             	cmp    $0xa,%eax
  401b2a:	75 d9                	jne    401b05 <Gets+0x16>
  401b2c:	c6 03 00             	movb   $0x0,(%rbx)
  401b2f:	b8 00 00 00 00       	mov    $0x0,%eax
  401b34:	e8 6e ff ff ff       	callq  401aa7 <save_term>
  401b39:	4c 89 e0             	mov    %r12,%rax
  401b3c:	5b                   	pop    %rbx
  401b3d:	5d                   	pop    %rbp
  401b3e:	41 5c                	pop    %r12
  401b40:	c3                   	retq   

0000000000401b41 <notify_server>:
  401b41:	53                   	push   %rbx
  401b42:	48 81 ec 10 40 00 00 	sub    $0x4010,%rsp
  401b49:	64 48 8b 04 25 28 00 	mov    %fs:0x28,%rax
  401b50:	00 00 
  401b52:	48 89 84 24 08 40 00 	mov    %rax,0x4008(%rsp)
  401b59:	00 
  401b5a:	31 c0                	xor    %eax,%eax
  401b5c:	83 3d c5 39 20 00 00 	cmpl   $0x0,0x2039c5(%rip)        # 605528 <is_checker>
  401b63:	0f 85 aa 01 00 00    	jne    401d13 <notify_server+0x1d2>
  401b69:	89 fb                	mov    %edi,%ebx
  401b6b:	8b 05 d3 45 20 00    	mov    0x2045d3(%rip),%eax        # 606144 <gets_cnt>
  401b71:	83 c0 64             	add    $0x64,%eax
  401b74:	3d 00 20 00 00       	cmp    $0x2000,%eax
  401b79:	7e 1e                	jle    401b99 <notify_server+0x58>
  401b7b:	be 80 34 40 00       	mov    $0x403480,%esi
  401b80:	bf 01 00 00 00       	mov    $0x1,%edi
  401b85:	b8 00 00 00 00       	mov    $0x0,%eax
  401b8a:	e8 91 f2 ff ff       	callq  400e20 <__printf_chk@plt>
  401b8f:	bf 01 00 00 00       	mov    $0x1,%edi
  401b94:	e8 d7 f2 ff ff       	callq  400e70 <exit@plt>
  401b99:	0f be 05 a8 45 20 00 	movsbl 0x2045a8(%rip),%eax        # 606148 <target_prefix>
  401ba0:	83 3d 01 39 20 00 00 	cmpl   $0x0,0x203901(%rip)        # 6054a8 <notify>
  401ba7:	74 08                	je     401bb1 <notify_server+0x70>
  401ba9:	8b 15 71 39 20 00    	mov    0x203971(%rip),%edx        # 605520 <authkey>
  401baf:	eb 05                	jmp    401bb6 <notify_server+0x75>
  401bb1:	ba ff ff ff ff       	mov    $0xffffffff,%edx
  401bb6:	85 db                	test   %ebx,%ebx
  401bb8:	74 08                	je     401bc2 <notify_server+0x81>
  401bba:	41 b9 61 33 40 00    	mov    $0x403361,%r9d
  401bc0:	eb 06                	jmp    401bc8 <notify_server+0x87>
  401bc2:	41 b9 66 33 40 00    	mov    $0x403366,%r9d
  401bc8:	68 40 55 60 00       	pushq  $0x605540
  401bcd:	56                   	push   %rsi
  401bce:	50                   	push   %rax
  401bcf:	52                   	push   %rdx
  401bd0:	44 8b 05 91 35 20 00 	mov    0x203591(%rip),%r8d        # 605168 <target_id>
  401bd7:	b9 6b 33 40 00       	mov    $0x40336b,%ecx
  401bdc:	ba 00 20 00 00       	mov    $0x2000,%edx
  401be1:	be 01 00 00 00       	mov    $0x1,%esi
  401be6:	48 8d 7c 24 20       	lea    0x20(%rsp),%rdi
  401beb:	b8 00 00 00 00       	mov    $0x0,%eax
  401bf0:	e8 ab f2 ff ff       	callq  400ea0 <__sprintf_chk@plt>
  401bf5:	48 83 c4 20          	add    $0x20,%rsp
  401bf9:	83 3d a8 38 20 00 00 	cmpl   $0x0,0x2038a8(%rip)        # 6054a8 <notify>
  401c00:	0f 84 81 00 00 00    	je     401c87 <notify_server+0x146>
  401c06:	4c 8d 8c 24 00 20 00 	lea    0x2000(%rsp),%r9
  401c0d:	00 
  401c0e:	41 b8 00 00 00 00    	mov    $0x0,%r8d
  401c14:	48 89 e1             	mov    %rsp,%rcx
  401c17:	48 8b 15 52 35 20 00 	mov    0x203552(%rip),%rdx        # 605170 <lab>
  401c1e:	48 8b 35 53 35 20 00 	mov    0x203553(%rip),%rsi        # 605178 <course>
  401c25:	48 8b 3d 34 35 20 00 	mov    0x203534(%rip),%rdi        # 605160 <user_id>
  401c2c:	e8 0e 11 00 00       	callq  402d3f <driver_post>
  401c31:	85 c0                	test   %eax,%eax
  401c33:	79 26                	jns    401c5b <notify_server+0x11a>
  401c35:	48 8d 94 24 00 20 00 	lea    0x2000(%rsp),%rdx
  401c3c:	00 
  401c3d:	be 87 33 40 00       	mov    $0x403387,%esi
  401c42:	bf 01 00 00 00       	mov    $0x1,%edi
  401c47:	b8 00 00 00 00       	mov    $0x0,%eax
  401c4c:	e8 cf f1 ff ff       	callq  400e20 <__printf_chk@plt>
  401c51:	bf 01 00 00 00       	mov    $0x1,%edi
  401c56:	e8 15 f2 ff ff       	callq  400e70 <exit@plt>
  401c5b:	85 db                	test   %ebx,%ebx
  401c5d:	74 19                	je     401c78 <notify_server+0x137>
  401c5f:	bf b0 34 40 00       	mov    $0x4034b0,%edi
  401c64:	e8 87 f0 ff ff       	callq  400cf0 <puts@plt>
  401c69:	bf 93 33 40 00       	mov    $0x403393,%edi
  401c6e:	e8 7d f0 ff ff       	callq  400cf0 <puts@plt>
  401c73:	e9 9b 00 00 00       	jmpq   401d13 <notify_server+0x1d2>
  401c78:	bf 9d 33 40 00       	mov    $0x40339d,%edi
  401c7d:	e8 6e f0 ff ff       	callq  400cf0 <puts@plt>
  401c82:	e9 8c 00 00 00       	jmpq   401d13 <notify_server+0x1d2>
  401c87:	85 db                	test   %ebx,%ebx
  401c89:	74 07                	je     401c92 <notify_server+0x151>
  401c8b:	ba 61 33 40 00       	mov    $0x403361,%edx
  401c90:	eb 05                	jmp    401c97 <notify_server+0x156>
  401c92:	ba 66 33 40 00       	mov    $0x403366,%edx
  401c97:	be e8 34 40 00       	mov    $0x4034e8,%esi
  401c9c:	bf 01 00 00 00       	mov    $0x1,%edi
  401ca1:	b8 00 00 00 00       	mov    $0x0,%eax
  401ca6:	e8 75 f1 ff ff       	callq  400e20 <__printf_chk@plt>
  401cab:	48 8b 15 ae 34 20 00 	mov    0x2034ae(%rip),%rdx        # 605160 <user_id>
  401cb2:	be a4 33 40 00       	mov    $0x4033a4,%esi
  401cb7:	bf 01 00 00 00       	mov    $0x1,%edi
  401cbc:	b8 00 00 00 00       	mov    $0x0,%eax
  401cc1:	e8 5a f1 ff ff       	callq  400e20 <__printf_chk@plt>
  401cc6:	48 8b 15 ab 34 20 00 	mov    0x2034ab(%rip),%rdx        # 605178 <course>
  401ccd:	be b1 33 40 00       	mov    $0x4033b1,%esi
  401cd2:	bf 01 00 00 00       	mov    $0x1,%edi
  401cd7:	b8 00 00 00 00       	mov    $0x0,%eax
  401cdc:	e8 3f f1 ff ff       	callq  400e20 <__printf_chk@plt>
  401ce1:	48 8b 15 88 34 20 00 	mov    0x203488(%rip),%rdx        # 605170 <lab>
  401ce8:	be bd 33 40 00       	mov    $0x4033bd,%esi
  401ced:	bf 01 00 00 00       	mov    $0x1,%edi
  401cf2:	b8 00 00 00 00       	mov    $0x0,%eax
  401cf7:	e8 24 f1 ff ff       	callq  400e20 <__printf_chk@plt>
  401cfc:	48 89 e2             	mov    %rsp,%rdx
  401cff:	be c6 33 40 00       	mov    $0x4033c6,%esi
  401d04:	bf 01 00 00 00       	mov    $0x1,%edi
  401d09:	b8 00 00 00 00       	mov    $0x0,%eax
  401d0e:	e8 0d f1 ff ff       	callq  400e20 <__printf_chk@plt>
  401d13:	48 8b 84 24 08 40 00 	mov    0x4008(%rsp),%rax
  401d1a:	00 
  401d1b:	64 48 33 04 25 28 00 	xor    %fs:0x28,%rax
  401d22:	00 00 
  401d24:	74 05                	je     401d2b <notify_server+0x1ea>
  401d26:	e8 e5 ef ff ff       	callq  400d10 <__stack_chk_fail@plt>
  401d2b:	48 81 c4 10 40 00 00 	add    $0x4010,%rsp
  401d32:	5b                   	pop    %rbx
  401d33:	c3                   	retq   

0000000000401d34 <validate>:
  401d34:	53                   	push   %rbx
  401d35:	89 fb                	mov    %edi,%ebx
  401d37:	83 3d ea 37 20 00 00 	cmpl   $0x0,0x2037ea(%rip)        # 605528 <is_checker>
  401d3e:	74 6b                	je     401dab <validate+0x77>
  401d40:	39 3d d6 37 20 00    	cmp    %edi,0x2037d6(%rip)        # 60551c <vlevel>
  401d46:	74 14                	je     401d5c <validate+0x28>
  401d48:	bf d2 33 40 00       	mov    $0x4033d2,%edi
  401d4d:	e8 9e ef ff ff       	callq  400cf0 <puts@plt>
  401d52:	b8 00 00 00 00       	mov    $0x0,%eax
  401d57:	e8 5e fd ff ff       	callq  401aba <check_fail>
  401d5c:	8b 15 b6 37 20 00    	mov    0x2037b6(%rip),%edx        # 605518 <check_level>
  401d62:	39 d7                	cmp    %edx,%edi
  401d64:	74 20                	je     401d86 <validate+0x52>
  401d66:	89 f9                	mov    %edi,%ecx
  401d68:	be 10 35 40 00       	mov    $0x403510,%esi
  401d6d:	bf 01 00 00 00       	mov    $0x1,%edi
  401d72:	b8 00 00 00 00       	mov    $0x0,%eax
  401d77:	e8 a4 f0 ff ff       	callq  400e20 <__printf_chk@plt>
  401d7c:	b8 00 00 00 00       	mov    $0x0,%eax
  401d81:	e8 34 fd ff ff       	callq  401aba <check_fail>
  401d86:	0f be 15 bb 43 20 00 	movsbl 0x2043bb(%rip),%edx        # 606148 <target_prefix>
  401d8d:	41 b8 40 55 60 00    	mov    $0x605540,%r8d
  401d93:	89 f9                	mov    %edi,%ecx
  401d95:	be f0 33 40 00       	mov    $0x4033f0,%esi
  401d9a:	bf 01 00 00 00       	mov    $0x1,%edi
  401d9f:	b8 00 00 00 00       	mov    $0x0,%eax
  401da4:	e8 77 f0 ff ff       	callq  400e20 <__printf_chk@plt>
  401da9:	eb 49                	jmp    401df4 <validate+0xc0>
  401dab:	3b 3d 6b 37 20 00    	cmp    0x20376b(%rip),%edi        # 60551c <vlevel>
  401db1:	74 18                	je     401dcb <validate+0x97>
  401db3:	bf d2 33 40 00       	mov    $0x4033d2,%edi
  401db8:	e8 33 ef ff ff       	callq  400cf0 <puts@plt>
  401dbd:	89 de                	mov    %ebx,%esi
  401dbf:	bf 00 00 00 00       	mov    $0x0,%edi
  401dc4:	e8 78 fd ff ff       	callq  401b41 <notify_server>
  401dc9:	eb 29                	jmp    401df4 <validate+0xc0>
  401dcb:	0f be 0d 76 43 20 00 	movsbl 0x204376(%rip),%ecx        # 606148 <target_prefix>
  401dd2:	89 fa                	mov    %edi,%edx
  401dd4:	be 38 35 40 00       	mov    $0x403538,%esi
  401dd9:	bf 01 00 00 00       	mov    $0x1,%edi
  401dde:	b8 00 00 00 00       	mov    $0x0,%eax
  401de3:	e8 38 f0 ff ff       	callq  400e20 <__printf_chk@plt>
  401de8:	89 de                	mov    %ebx,%esi
  401dea:	bf 01 00 00 00       	mov    $0x1,%edi
  401def:	e8 4d fd ff ff       	callq  401b41 <notify_server>
  401df4:	5b                   	pop    %rbx
  401df5:	c3                   	retq   

0000000000401df6 <fail>:
  401df6:	48 83 ec 08          	sub    $0x8,%rsp
  401dfa:	83 3d 27 37 20 00 00 	cmpl   $0x0,0x203727(%rip)        # 605528 <is_checker>
  401e01:	74 0a                	je     401e0d <fail+0x17>
  401e03:	b8 00 00 00 00       	mov    $0x0,%eax
  401e08:	e8 ad fc ff ff       	callq  401aba <check_fail>
  401e0d:	89 fe                	mov    %edi,%esi
  401e0f:	bf 00 00 00 00       	mov    $0x0,%edi
  401e14:	e8 28 fd ff ff       	callq  401b41 <notify_server>
  401e19:	48 83 c4 08          	add    $0x8,%rsp
  401e1d:	c3                   	retq   

0000000000401e1e <bushandler>:
  401e1e:	48 83 ec 08          	sub    $0x8,%rsp
  401e22:	83 3d ff 36 20 00 00 	cmpl   $0x0,0x2036ff(%rip)        # 605528 <is_checker>
  401e29:	74 14                	je     401e3f <bushandler+0x21>
  401e2b:	bf 05 34 40 00       	mov    $0x403405,%edi
  401e30:	e8 bb ee ff ff       	callq  400cf0 <puts@plt>
  401e35:	b8 00 00 00 00       	mov    $0x0,%eax
  401e3a:	e8 7b fc ff ff       	callq  401aba <check_fail>
  401e3f:	bf 70 35 40 00       	mov    $0x403570,%edi
  401e44:	e8 a7 ee ff ff       	callq  400cf0 <puts@plt>
  401e49:	bf 0f 34 40 00       	mov    $0x40340f,%edi
  401e4e:	e8 9d ee ff ff       	callq  400cf0 <puts@plt>
  401e53:	be 00 00 00 00       	mov    $0x0,%esi
  401e58:	bf 00 00 00 00       	mov    $0x0,%edi
  401e5d:	e8 df fc ff ff       	callq  401b41 <notify_server>
  401e62:	bf 01 00 00 00       	mov    $0x1,%edi
  401e67:	e8 04 f0 ff ff       	callq  400e70 <exit@plt>

0000000000401e6c <seghandler>:
  401e6c:	48 83 ec 08          	sub    $0x8,%rsp
  401e70:	83 3d b1 36 20 00 00 	cmpl   $0x0,0x2036b1(%rip)        # 605528 <is_checker>
  401e77:	74 14                	je     401e8d <seghandler+0x21>
  401e79:	bf 25 34 40 00       	mov    $0x403425,%edi
  401e7e:	e8 6d ee ff ff       	callq  400cf0 <puts@plt>
  401e83:	b8 00 00 00 00       	mov    $0x0,%eax
  401e88:	e8 2d fc ff ff       	callq  401aba <check_fail>
  401e8d:	bf 90 35 40 00       	mov    $0x403590,%edi
  401e92:	e8 59 ee ff ff       	callq  400cf0 <puts@plt>
  401e97:	bf 0f 34 40 00       	mov    $0x40340f,%edi
  401e9c:	e8 4f ee ff ff       	callq  400cf0 <puts@plt>
  401ea1:	be 00 00 00 00       	mov    $0x0,%esi
  401ea6:	bf 00 00 00 00       	mov    $0x0,%edi
  401eab:	e8 91 fc ff ff       	callq  401b41 <notify_server>
  401eb0:	bf 01 00 00 00       	mov    $0x1,%edi
  401eb5:	e8 b6 ef ff ff       	callq  400e70 <exit@plt>

0000000000401eba <illegalhandler>:
  401eba:	48 83 ec 08          	sub    $0x8,%rsp
  401ebe:	83 3d 63 36 20 00 00 	cmpl   $0x0,0x203663(%rip)        # 605528 <is_checker>
  401ec5:	74 14                	je     401edb <illegalhandler+0x21>
  401ec7:	bf 38 34 40 00       	mov    $0x403438,%edi
  401ecc:	e8 1f ee ff ff       	callq  400cf0 <puts@plt>
  401ed1:	b8 00 00 00 00       	mov    $0x0,%eax
  401ed6:	e8 df fb ff ff       	callq  401aba <check_fail>
  401edb:	bf b8 35 40 00       	mov    $0x4035b8,%edi
  401ee0:	e8 0b ee ff ff       	callq  400cf0 <puts@plt>
  401ee5:	bf 0f 34 40 00       	mov    $0x40340f,%edi
  401eea:	e8 01 ee ff ff       	callq  400cf0 <puts@plt>
  401eef:	be 00 00 00 00       	mov    $0x0,%esi
  401ef4:	bf 00 00 00 00       	mov    $0x0,%edi
  401ef9:	e8 43 fc ff ff       	callq  401b41 <notify_server>
  401efe:	bf 01 00 00 00       	mov    $0x1,%edi
  401f03:	e8 68 ef ff ff       	callq  400e70 <exit@plt>

0000000000401f08 <sigalrmhandler>:
  401f08:	48 83 ec 08          	sub    $0x8,%rsp
  401f0c:	83 3d 15 36 20 00 00 	cmpl   $0x0,0x203615(%rip)        # 605528 <is_checker>
  401f13:	74 14                	je     401f29 <sigalrmhandler+0x21>
  401f15:	bf 4c 34 40 00       	mov    $0x40344c,%edi
  401f1a:	e8 d1 ed ff ff       	callq  400cf0 <puts@plt>
  401f1f:	b8 00 00 00 00       	mov    $0x0,%eax
  401f24:	e8 91 fb ff ff       	callq  401aba <check_fail>
  401f29:	ba 05 00 00 00       	mov    $0x5,%edx
  401f2e:	be e8 35 40 00       	mov    $0x4035e8,%esi
  401f33:	bf 01 00 00 00       	mov    $0x1,%edi
  401f38:	b8 00 00 00 00       	mov    $0x0,%eax
  401f3d:	e8 de ee ff ff       	callq  400e20 <__printf_chk@plt>
  401f42:	be 00 00 00 00       	mov    $0x0,%esi
  401f47:	bf 00 00 00 00       	mov    $0x0,%edi
  401f4c:	e8 f0 fb ff ff       	callq  401b41 <notify_server>
  401f51:	bf 01 00 00 00       	mov    $0x1,%edi
  401f56:	e8 15 ef ff ff       	callq  400e70 <exit@plt>

0000000000401f5b <launch>:
  401f5b:	55                   	push   %rbp
  401f5c:	48 89 e5             	mov    %rsp,%rbp
  401f5f:	48 83 ec 10          	sub    $0x10,%rsp
  401f63:	48 89 fa             	mov    %rdi,%rdx
  401f66:	64 48 8b 04 25 28 00 	mov    %fs:0x28,%rax
  401f6d:	00 00 
  401f6f:	48 89 45 f8          	mov    %rax,-0x8(%rbp)
  401f73:	31 c0                	xor    %eax,%eax
  401f75:	48 8d 47 1e          	lea    0x1e(%rdi),%rax
  401f79:	48 83 e0 f0          	and    $0xfffffffffffffff0,%rax
  401f7d:	48 29 c4             	sub    %rax,%rsp
  401f80:	48 8d 7c 24 0f       	lea    0xf(%rsp),%rdi
  401f85:	48 83 e7 f0          	and    $0xfffffffffffffff0,%rdi
  401f89:	be f4 00 00 00       	mov    $0xf4,%esi
  401f8e:	e8 9d ed ff ff       	callq  400d30 <memset@plt>
  401f93:	48 8b 05 26 35 20 00 	mov    0x203526(%rip),%rax        # 6054c0 <stdin@@GLIBC_2.2.5>
  401f9a:	48 39 05 6f 35 20 00 	cmp    %rax,0x20356f(%rip)        # 605510 <infile>
  401fa1:	75 14                	jne    401fb7 <launch+0x5c>
  401fa3:	be 54 34 40 00       	mov    $0x403454,%esi
  401fa8:	bf 01 00 00 00       	mov    $0x1,%edi
  401fad:	b8 00 00 00 00       	mov    $0x0,%eax
  401fb2:	e8 69 ee ff ff       	callq  400e20 <__printf_chk@plt>
  401fb7:	c7 05 5b 35 20 00 00 	movl   $0x0,0x20355b(%rip)        # 60551c <vlevel>
  401fbe:	00 00 00 
  401fc1:	b8 00 00 00 00       	mov    $0x0,%eax
  401fc6:	e8 5b fa ff ff       	callq  401a26 <test>
  401fcb:	83 3d 56 35 20 00 00 	cmpl   $0x0,0x203556(%rip)        # 605528 <is_checker>
  401fd2:	74 14                	je     401fe8 <launch+0x8d>
  401fd4:	bf 61 34 40 00       	mov    $0x403461,%edi
  401fd9:	e8 12 ed ff ff       	callq  400cf0 <puts@plt>
  401fde:	b8 00 00 00 00       	mov    $0x0,%eax
  401fe3:	e8 d2 fa ff ff       	callq  401aba <check_fail>
  401fe8:	bf 6c 34 40 00       	mov    $0x40346c,%edi
  401fed:	e8 fe ec ff ff       	callq  400cf0 <puts@plt>
  401ff2:	48 8b 45 f8          	mov    -0x8(%rbp),%rax
  401ff6:	64 48 33 04 25 28 00 	xor    %fs:0x28,%rax
  401ffd:	00 00 
  401fff:	74 05                	je     402006 <launch+0xab>
  402001:	e8 0a ed ff ff       	callq  400d10 <__stack_chk_fail@plt>
  402006:	c9                   	leaveq 
  402007:	c3                   	retq   

0000000000402008 <stable_launch>:
  402008:	53                   	push   %rbx
  402009:	48 89 3d f8 34 20 00 	mov    %rdi,0x2034f8(%rip)        # 605508 <global_offset>
  402010:	41 b9 00 00 00 00    	mov    $0x0,%r9d
  402016:	41 b8 00 00 00 00    	mov    $0x0,%r8d
  40201c:	b9 32 01 00 00       	mov    $0x132,%ecx
  402021:	ba 07 00 00 00       	mov    $0x7,%edx
  402026:	be 00 00 10 00       	mov    $0x100000,%esi
  40202b:	bf 00 60 58 55       	mov    $0x55586000,%edi
  402030:	e8 eb ec ff ff       	callq  400d20 <mmap@plt>
  402035:	48 89 c3             	mov    %rax,%rbx
  402038:	48 3d 00 60 58 55    	cmp    $0x55586000,%rax
  40203e:	74 37                	je     402077 <stable_launch+0x6f>
  402040:	be 00 00 10 00       	mov    $0x100000,%esi
  402045:	48 89 c7             	mov    %rax,%rdi
  402048:	e8 c3 ed ff ff       	callq  400e10 <munmap@plt>
  40204d:	b9 00 60 58 55       	mov    $0x55586000,%ecx
  402052:	ba 20 36 40 00       	mov    $0x403620,%edx
  402057:	be 01 00 00 00       	mov    $0x1,%esi
  40205c:	48 8b 3d 7d 34 20 00 	mov    0x20347d(%rip),%rdi        # 6054e0 <stderr@@GLIBC_2.2.5>
  402063:	b8 00 00 00 00       	mov    $0x0,%eax
  402068:	e8 23 ee ff ff       	callq  400e90 <__fprintf_chk@plt>
  40206d:	bf 01 00 00 00       	mov    $0x1,%edi
  402072:	e8 f9 ed ff ff       	callq  400e70 <exit@plt>
  402077:	48 8d 90 f8 ff 0f 00 	lea    0xffff8(%rax),%rdx
  40207e:	48 89 15 cb 40 20 00 	mov    %rdx,0x2040cb(%rip)        # 606150 <stack_top>
  402085:	48 89 e0             	mov    %rsp,%rax
  402088:	48 89 d4             	mov    %rdx,%rsp
  40208b:	48 89 c2             	mov    %rax,%rdx
  40208e:	48 89 15 6b 34 20 00 	mov    %rdx,0x20346b(%rip)        # 605500 <global_save_stack>
  402095:	48 8b 3d 6c 34 20 00 	mov    0x20346c(%rip),%rdi        # 605508 <global_offset>
  40209c:	e8 ba fe ff ff       	callq  401f5b <launch>
  4020a1:	48 8b 05 58 34 20 00 	mov    0x203458(%rip),%rax        # 605500 <global_save_stack>
  4020a8:	48 89 c4             	mov    %rax,%rsp
  4020ab:	be 00 00 10 00       	mov    $0x100000,%esi
  4020b0:	48 89 df             	mov    %rbx,%rdi
  4020b3:	e8 58 ed ff ff       	callq  400e10 <munmap@plt>
  4020b8:	5b                   	pop    %rbx
  4020b9:	c3                   	retq   

00000000004020ba <rio_readinitb>:
  4020ba:	89 37                	mov    %esi,(%rdi)
  4020bc:	c7 47 04 00 00 00 00 	movl   $0x0,0x4(%rdi)
  4020c3:	48 8d 47 10          	lea    0x10(%rdi),%rax
  4020c7:	48 89 47 08          	mov    %rax,0x8(%rdi)
  4020cb:	c3                   	retq   

00000000004020cc <sigalrm_handler>:
  4020cc:	48 83 ec 08          	sub    $0x8,%rsp
  4020d0:	b9 00 00 00 00       	mov    $0x0,%ecx
  4020d5:	ba 60 36 40 00       	mov    $0x403660,%edx
  4020da:	be 01 00 00 00       	mov    $0x1,%esi
  4020df:	48 8b 3d fa 33 20 00 	mov    0x2033fa(%rip),%rdi        # 6054e0 <stderr@@GLIBC_2.2.5>
  4020e6:	b8 00 00 00 00       	mov    $0x0,%eax
  4020eb:	e8 a0 ed ff ff       	callq  400e90 <__fprintf_chk@plt>
  4020f0:	bf 01 00 00 00       	mov    $0x1,%edi
  4020f5:	e8 76 ed ff ff       	callq  400e70 <exit@plt>

00000000004020fa <rio_writen>:
  4020fa:	41 55                	push   %r13
  4020fc:	41 54                	push   %r12
  4020fe:	55                   	push   %rbp
  4020ff:	53                   	push   %rbx
  402100:	48 83 ec 08          	sub    $0x8,%rsp
  402104:	41 89 fc             	mov    %edi,%r12d
  402107:	48 89 f5             	mov    %rsi,%rbp
  40210a:	49 89 d5             	mov    %rdx,%r13
  40210d:	48 89 d3             	mov    %rdx,%rbx
  402110:	eb 28                	jmp    40213a <rio_writen+0x40>
  402112:	48 89 da             	mov    %rbx,%rdx
  402115:	48 89 ee             	mov    %rbp,%rsi
  402118:	44 89 e7             	mov    %r12d,%edi
  40211b:	e8 e0 eb ff ff       	callq  400d00 <write@plt>
  402120:	48 85 c0             	test   %rax,%rax
  402123:	7f 0f                	jg     402134 <rio_writen+0x3a>
  402125:	e8 86 eb ff ff       	callq  400cb0 <__errno_location@plt>
  40212a:	83 38 04             	cmpl   $0x4,(%rax)
  40212d:	75 15                	jne    402144 <rio_writen+0x4a>
  40212f:	b8 00 00 00 00       	mov    $0x0,%eax
  402134:	48 29 c3             	sub    %rax,%rbx
  402137:	48 01 c5             	add    %rax,%rbp
  40213a:	48 85 db             	test   %rbx,%rbx
  40213d:	75 d3                	jne    402112 <rio_writen+0x18>
  40213f:	4c 89 e8             	mov    %r13,%rax
  402142:	eb 07                	jmp    40214b <rio_writen+0x51>
  402144:	48 c7 c0 ff ff ff ff 	mov    $0xffffffffffffffff,%rax
  40214b:	48 83 c4 08          	add    $0x8,%rsp
  40214f:	5b                   	pop    %rbx
  402150:	5d                   	pop    %rbp
  402151:	41 5c                	pop    %r12
  402153:	41 5d                	pop    %r13
  402155:	c3                   	retq   

0000000000402156 <rio_read>:
  402156:	41 55                	push   %r13
  402158:	41 54                	push   %r12
  40215a:	55                   	push   %rbp
  40215b:	53                   	push   %rbx
  40215c:	48 83 ec 08          	sub    $0x8,%rsp
  402160:	48 89 fb             	mov    %rdi,%rbx
  402163:	49 89 f5             	mov    %rsi,%r13
  402166:	49 89 d4             	mov    %rdx,%r12
  402169:	eb 2e                	jmp    402199 <rio_read+0x43>
  40216b:	48 8d 6b 10          	lea    0x10(%rbx),%rbp
  40216f:	8b 3b                	mov    (%rbx),%edi
  402171:	ba 00 20 00 00       	mov    $0x2000,%edx
  402176:	48 89 ee             	mov    %rbp,%rsi
  402179:	e8 e2 eb ff ff       	callq  400d60 <read@plt>
  40217e:	89 43 04             	mov    %eax,0x4(%rbx)
  402181:	85 c0                	test   %eax,%eax
  402183:	79 0c                	jns    402191 <rio_read+0x3b>
  402185:	e8 26 eb ff ff       	callq  400cb0 <__errno_location@plt>
  40218a:	83 38 04             	cmpl   $0x4,(%rax)
  40218d:	74 0a                	je     402199 <rio_read+0x43>
  40218f:	eb 37                	jmp    4021c8 <rio_read+0x72>
  402191:	85 c0                	test   %eax,%eax
  402193:	74 3c                	je     4021d1 <rio_read+0x7b>
  402195:	48 89 6b 08          	mov    %rbp,0x8(%rbx)
  402199:	8b 6b 04             	mov    0x4(%rbx),%ebp
  40219c:	85 ed                	test   %ebp,%ebp
  40219e:	7e cb                	jle    40216b <rio_read+0x15>
  4021a0:	89 e8                	mov    %ebp,%eax
  4021a2:	49 39 c4             	cmp    %rax,%r12
  4021a5:	77 03                	ja     4021aa <rio_read+0x54>
  4021a7:	44 89 e5             	mov    %r12d,%ebp
  4021aa:	4c 63 e5             	movslq %ebp,%r12
  4021ad:	48 8b 73 08          	mov    0x8(%rbx),%rsi
  4021b1:	4c 89 e2             	mov    %r12,%rdx
  4021b4:	4c 89 ef             	mov    %r13,%rdi
  4021b7:	e8 04 ec ff ff       	callq  400dc0 <memcpy@plt>
  4021bc:	4c 01 63 08          	add    %r12,0x8(%rbx)
  4021c0:	29 6b 04             	sub    %ebp,0x4(%rbx)
  4021c3:	4c 89 e0             	mov    %r12,%rax
  4021c6:	eb 0e                	jmp    4021d6 <rio_read+0x80>
  4021c8:	48 c7 c0 ff ff ff ff 	mov    $0xffffffffffffffff,%rax
  4021cf:	eb 05                	jmp    4021d6 <rio_read+0x80>
  4021d1:	b8 00 00 00 00       	mov    $0x0,%eax
  4021d6:	48 83 c4 08          	add    $0x8,%rsp
  4021da:	5b                   	pop    %rbx
  4021db:	5d                   	pop    %rbp
  4021dc:	41 5c                	pop    %r12
  4021de:	41 5d                	pop    %r13
  4021e0:	c3                   	retq   

00000000004021e1 <rio_readlineb>:
  4021e1:	41 55                	push   %r13
  4021e3:	41 54                	push   %r12
  4021e5:	55                   	push   %rbp
  4021e6:	53                   	push   %rbx
  4021e7:	48 83 ec 18          	sub    $0x18,%rsp
  4021eb:	49 89 fd             	mov    %rdi,%r13
  4021ee:	48 89 f5             	mov    %rsi,%rbp
  4021f1:	49 89 d4             	mov    %rdx,%r12
  4021f4:	64 48 8b 04 25 28 00 	mov    %fs:0x28,%rax
  4021fb:	00 00 
  4021fd:	48 89 44 24 08       	mov    %rax,0x8(%rsp)
  402202:	31 c0                	xor    %eax,%eax
  402204:	bb 01 00 00 00       	mov    $0x1,%ebx
  402209:	eb 3f                	jmp    40224a <rio_readlineb+0x69>
  40220b:	ba 01 00 00 00       	mov    $0x1,%edx
  402210:	48 8d 74 24 07       	lea    0x7(%rsp),%rsi
  402215:	4c 89 ef             	mov    %r13,%rdi
  402218:	e8 39 ff ff ff       	callq  402156 <rio_read>
  40221d:	83 f8 01             	cmp    $0x1,%eax
  402220:	75 15                	jne    402237 <rio_readlineb+0x56>
  402222:	48 8d 45 01          	lea    0x1(%rbp),%rax
  402226:	0f b6 54 24 07       	movzbl 0x7(%rsp),%edx
  40222b:	88 55 00             	mov    %dl,0x0(%rbp)
  40222e:	80 7c 24 07 0a       	cmpb   $0xa,0x7(%rsp)
  402233:	75 0e                	jne    402243 <rio_readlineb+0x62>
  402235:	eb 1a                	jmp    402251 <rio_readlineb+0x70>
  402237:	85 c0                	test   %eax,%eax
  402239:	75 22                	jne    40225d <rio_readlineb+0x7c>
  40223b:	48 83 fb 01          	cmp    $0x1,%rbx
  40223f:	75 13                	jne    402254 <rio_readlineb+0x73>
  402241:	eb 23                	jmp    402266 <rio_readlineb+0x85>
  402243:	48 83 c3 01          	add    $0x1,%rbx
  402247:	48 89 c5             	mov    %rax,%rbp
  40224a:	4c 39 e3             	cmp    %r12,%rbx
  40224d:	72 bc                	jb     40220b <rio_readlineb+0x2a>
  40224f:	eb 03                	jmp    402254 <rio_readlineb+0x73>
  402251:	48 89 c5             	mov    %rax,%rbp
  402254:	c6 45 00 00          	movb   $0x0,0x0(%rbp)
  402258:	48 89 d8             	mov    %rbx,%rax
  40225b:	eb 0e                	jmp    40226b <rio_readlineb+0x8a>
  40225d:	48 c7 c0 ff ff ff ff 	mov    $0xffffffffffffffff,%rax
  402264:	eb 05                	jmp    40226b <rio_readlineb+0x8a>
  402266:	b8 00 00 00 00       	mov    $0x0,%eax
  40226b:	48 8b 4c 24 08       	mov    0x8(%rsp),%rcx
  402270:	64 48 33 0c 25 28 00 	xor    %fs:0x28,%rcx
  402277:	00 00 
  402279:	74 05                	je     402280 <rio_readlineb+0x9f>
  40227b:	e8 90 ea ff ff       	callq  400d10 <__stack_chk_fail@plt>
  402280:	48 83 c4 18          	add    $0x18,%rsp
  402284:	5b                   	pop    %rbx
  402285:	5d                   	pop    %rbp
  402286:	41 5c                	pop    %r12
  402288:	41 5d                	pop    %r13
  40228a:	c3                   	retq   

000000000040228b <urlencode>:
  40228b:	41 54                	push   %r12
  40228d:	55                   	push   %rbp
  40228e:	53                   	push   %rbx
  40228f:	48 83 ec 10          	sub    $0x10,%rsp
  402293:	48 89 fb             	mov    %rdi,%rbx
  402296:	48 89 f5             	mov    %rsi,%rbp
  402299:	64 48 8b 04 25 28 00 	mov    %fs:0x28,%rax
  4022a0:	00 00 
  4022a2:	48 89 44 24 08       	mov    %rax,0x8(%rsp)
  4022a7:	31 c0                	xor    %eax,%eax
  4022a9:	48 c7 c1 ff ff ff ff 	mov    $0xffffffffffffffff,%rcx
  4022b0:	f2 ae                	repnz scas %es:(%rdi),%al
  4022b2:	48 f7 d1             	not    %rcx
  4022b5:	8d 41 ff             	lea    -0x1(%rcx),%eax
  4022b8:	e9 aa 00 00 00       	jmpq   402367 <urlencode+0xdc>
  4022bd:	44 0f b6 03          	movzbl (%rbx),%r8d
  4022c1:	41 80 f8 2a          	cmp    $0x2a,%r8b
  4022c5:	0f 94 c2             	sete   %dl
  4022c8:	41 80 f8 2d          	cmp    $0x2d,%r8b
  4022cc:	0f 94 c0             	sete   %al
  4022cf:	08 c2                	or     %al,%dl
  4022d1:	75 24                	jne    4022f7 <urlencode+0x6c>
  4022d3:	41 80 f8 2e          	cmp    $0x2e,%r8b
  4022d7:	74 1e                	je     4022f7 <urlencode+0x6c>
  4022d9:	41 80 f8 5f          	cmp    $0x5f,%r8b
  4022dd:	74 18                	je     4022f7 <urlencode+0x6c>
  4022df:	41 8d 40 d0          	lea    -0x30(%r8),%eax
  4022e3:	3c 09                	cmp    $0x9,%al
  4022e5:	76 10                	jbe    4022f7 <urlencode+0x6c>
  4022e7:	41 8d 40 bf          	lea    -0x41(%r8),%eax
  4022eb:	3c 19                	cmp    $0x19,%al
  4022ed:	76 08                	jbe    4022f7 <urlencode+0x6c>
  4022ef:	41 8d 40 9f          	lea    -0x61(%r8),%eax
  4022f3:	3c 19                	cmp    $0x19,%al
  4022f5:	77 0a                	ja     402301 <urlencode+0x76>
  4022f7:	44 88 45 00          	mov    %r8b,0x0(%rbp)
  4022fb:	48 8d 6d 01          	lea    0x1(%rbp),%rbp
  4022ff:	eb 5f                	jmp    402360 <urlencode+0xd5>
  402301:	41 80 f8 20          	cmp    $0x20,%r8b
  402305:	75 0a                	jne    402311 <urlencode+0x86>
  402307:	c6 45 00 2b          	movb   $0x2b,0x0(%rbp)
  40230b:	48 8d 6d 01          	lea    0x1(%rbp),%rbp
  40230f:	eb 4f                	jmp    402360 <urlencode+0xd5>
  402311:	41 8d 40 e0          	lea    -0x20(%r8),%eax
  402315:	3c 5f                	cmp    $0x5f,%al
  402317:	0f 96 c2             	setbe  %dl
  40231a:	41 80 f8 09          	cmp    $0x9,%r8b
  40231e:	0f 94 c0             	sete   %al
  402321:	08 c2                	or     %al,%dl
  402323:	74 50                	je     402375 <urlencode+0xea>
  402325:	45 0f b6 c0          	movzbl %r8b,%r8d
  402329:	b9 18 37 40 00       	mov    $0x403718,%ecx
  40232e:	ba 08 00 00 00       	mov    $0x8,%edx
  402333:	be 01 00 00 00       	mov    $0x1,%esi
  402338:	48 89 e7             	mov    %rsp,%rdi
  40233b:	b8 00 00 00 00       	mov    $0x0,%eax
  402340:	e8 5b eb ff ff       	callq  400ea0 <__sprintf_chk@plt>
  402345:	0f b6 04 24          	movzbl (%rsp),%eax
  402349:	88 45 00             	mov    %al,0x0(%rbp)
  40234c:	0f b6 44 24 01       	movzbl 0x1(%rsp),%eax
  402351:	88 45 01             	mov    %al,0x1(%rbp)
  402354:	0f b6 44 24 02       	movzbl 0x2(%rsp),%eax
  402359:	88 45 02             	mov    %al,0x2(%rbp)
  40235c:	48 8d 6d 03          	lea    0x3(%rbp),%rbp
  402360:	48 83 c3 01          	add    $0x1,%rbx
  402364:	44 89 e0             	mov    %r12d,%eax
  402367:	44 8d 60 ff          	lea    -0x1(%rax),%r12d
  40236b:	85 c0                	test   %eax,%eax
  40236d:	0f 85 4a ff ff ff    	jne    4022bd <urlencode+0x32>
  402373:	eb 05                	jmp    40237a <urlencode+0xef>
  402375:	b8 ff ff ff ff       	mov    $0xffffffff,%eax
  40237a:	48 8b 74 24 08       	mov    0x8(%rsp),%rsi
  40237f:	64 48 33 34 25 28 00 	xor    %fs:0x28,%rsi
  402386:	00 00 
  402388:	74 05                	je     40238f <urlencode+0x104>
  40238a:	e8 81 e9 ff ff       	callq  400d10 <__stack_chk_fail@plt>
  40238f:	48 83 c4 10          	add    $0x10,%rsp
  402393:	5b                   	pop    %rbx
  402394:	5d                   	pop    %rbp
  402395:	41 5c                	pop    %r12
  402397:	c3                   	retq   

0000000000402398 <submitr>:
  402398:	41 57                	push   %r15
  40239a:	41 56                	push   %r14
  40239c:	41 55                	push   %r13
  40239e:	41 54                	push   %r12
  4023a0:	55                   	push   %rbp
  4023a1:	53                   	push   %rbx
  4023a2:	48 81 ec 58 a0 00 00 	sub    $0xa058,%rsp
  4023a9:	49 89 fd             	mov    %rdi,%r13
  4023ac:	89 74 24 0c          	mov    %esi,0xc(%rsp)
  4023b0:	48 89 14 24          	mov    %rdx,(%rsp)
  4023b4:	49 89 ce             	mov    %rcx,%r14
  4023b7:	4d 89 c7             	mov    %r8,%r15
  4023ba:	4d 89 cc             	mov    %r9,%r12
  4023bd:	48 8b 9c 24 90 a0 00 	mov    0xa090(%rsp),%rbx
  4023c4:	00 
  4023c5:	64 48 8b 04 25 28 00 	mov    %fs:0x28,%rax
  4023cc:	00 00 
  4023ce:	48 89 84 24 48 a0 00 	mov    %rax,0xa048(%rsp)
  4023d5:	00 
  4023d6:	31 c0                	xor    %eax,%eax
  4023d8:	c7 44 24 1c 00 00 00 	movl   $0x0,0x1c(%rsp)
  4023df:	00 
  4023e0:	ba 00 00 00 00       	mov    $0x0,%edx
  4023e5:	be 01 00 00 00       	mov    $0x1,%esi
  4023ea:	bf 02 00 00 00       	mov    $0x2,%edi
  4023ef:	e8 bc ea ff ff       	callq  400eb0 <socket@plt>
  4023f4:	85 c0                	test   %eax,%eax
  4023f6:	79 4e                	jns    402446 <submitr+0xae>
  4023f8:	48 b8 45 72 72 6f 72 	movabs $0x43203a726f727245,%rax
  4023ff:	3a 20 43 
  402402:	48 89 03             	mov    %rax,(%rbx)
  402405:	48 b8 6c 69 65 6e 74 	movabs $0x6e7520746e65696c,%rax
  40240c:	20 75 6e 
  40240f:	48 89 43 08          	mov    %rax,0x8(%rbx)
  402413:	48 b8 61 62 6c 65 20 	movabs $0x206f7420656c6261,%rax
  40241a:	74 6f 20 
  40241d:	48 89 43 10          	mov    %rax,0x10(%rbx)
  402421:	48 b8 63 72 65 61 74 	movabs $0x7320657461657263,%rax
  402428:	65 20 73 
  40242b:	48 89 43 18          	mov    %rax,0x18(%rbx)
  40242f:	c7 43 20 6f 63 6b 65 	movl   $0x656b636f,0x20(%rbx)
  402436:	66 c7 43 24 74 00    	movw   $0x74,0x24(%rbx)
  40243c:	b8 ff ff ff ff       	mov    $0xffffffff,%eax
  402441:	e9 b3 06 00 00       	jmpq   402af9 <submitr+0x761>
  402446:	89 c5                	mov    %eax,%ebp
  402448:	4c 89 ef             	mov    %r13,%rdi
  40244b:	e8 40 e9 ff ff       	callq  400d90 <gethostbyname@plt>
  402450:	48 85 c0             	test   %rax,%rax
  402453:	75 75                	jne    4024ca <submitr+0x132>
  402455:	48 b8 45 72 72 6f 72 	movabs $0x44203a726f727245,%rax
  40245c:	3a 20 44 
  40245f:	48 89 03             	mov    %rax,(%rbx)
  402462:	48 b8 4e 53 20 69 73 	movabs $0x6e7520736920534e,%rax
  402469:	20 75 6e 
  40246c:	48 89 43 08          	mov    %rax,0x8(%rbx)
  402470:	48 b8 61 62 6c 65 20 	movabs $0x206f7420656c6261,%rax
  402477:	74 6f 20 
  40247a:	48 89 43 10          	mov    %rax,0x10(%rbx)
  40247e:	48 b8 72 65 73 6f 6c 	movabs $0x2065766c6f736572,%rax
  402485:	76 65 20 
  402488:	48 89 43 18          	mov    %rax,0x18(%rbx)
  40248c:	48 b8 41 75 74 6f 6c 	movabs $0x2062616c6f747541,%rax
  402493:	61 62 20 
  402496:	48 89 43 20          	mov    %rax,0x20(%rbx)
  40249a:	48 b8 73 65 72 76 65 	movabs $0x6120726576726573,%rax
  4024a1:	72 20 61 
  4024a4:	48 89 43 28          	mov    %rax,0x28(%rbx)
  4024a8:	c7 43 30 64 64 72 65 	movl   $0x65726464,0x30(%rbx)
  4024af:	66 c7 43 34 73 73    	movw   $0x7373,0x34(%rbx)
  4024b5:	c6 43 36 00          	movb   $0x0,0x36(%rbx)
  4024b9:	89 ef                	mov    %ebp,%edi
  4024bb:	e8 90 e8 ff ff       	callq  400d50 <close@plt>
  4024c0:	b8 ff ff ff ff       	mov    $0xffffffff,%eax
  4024c5:	e9 2f 06 00 00       	jmpq   402af9 <submitr+0x761>
  4024ca:	48 c7 44 24 20 00 00 	movq   $0x0,0x20(%rsp)
  4024d1:	00 00 
  4024d3:	48 c7 44 24 28 00 00 	movq   $0x0,0x28(%rsp)
  4024da:	00 00 
  4024dc:	66 c7 44 24 20 02 00 	movw   $0x2,0x20(%rsp)
  4024e3:	48 63 50 14          	movslq 0x14(%rax),%rdx
  4024e7:	48 8b 40 18          	mov    0x18(%rax),%rax
  4024eb:	48 8b 30             	mov    (%rax),%rsi
  4024ee:	48 8d 7c 24 24       	lea    0x24(%rsp),%rdi
  4024f3:	b9 0c 00 00 00       	mov    $0xc,%ecx
  4024f8:	e8 a3 e8 ff ff       	callq  400da0 <__memmove_chk@plt>
  4024fd:	0f b7 44 24 0c       	movzwl 0xc(%rsp),%eax
  402502:	66 c1 c8 08          	ror    $0x8,%ax
  402506:	66 89 44 24 22       	mov    %ax,0x22(%rsp)
  40250b:	ba 10 00 00 00       	mov    $0x10,%edx
  402510:	48 8d 74 24 20       	lea    0x20(%rsp),%rsi
  402515:	89 ef                	mov    %ebp,%edi
  402517:	e8 64 e9 ff ff       	callq  400e80 <connect@plt>
  40251c:	85 c0                	test   %eax,%eax
  40251e:	79 67                	jns    402587 <submitr+0x1ef>
  402520:	48 b8 45 72 72 6f 72 	movabs $0x55203a726f727245,%rax
  402527:	3a 20 55 
  40252a:	48 89 03             	mov    %rax,(%rbx)
  40252d:	48 b8 6e 61 62 6c 65 	movabs $0x6f7420656c62616e,%rax
  402534:	20 74 6f 
  402537:	48 89 43 08          	mov    %rax,0x8(%rbx)
  40253b:	48 b8 20 63 6f 6e 6e 	movabs $0x7463656e6e6f6320,%rax
  402542:	65 63 74 
  402545:	48 89 43 10          	mov    %rax,0x10(%rbx)
  402549:	48 b8 20 74 6f 20 74 	movabs $0x20656874206f7420,%rax
  402550:	68 65 20 
  402553:	48 89 43 18          	mov    %rax,0x18(%rbx)
  402557:	48 b8 41 75 74 6f 6c 	movabs $0x2062616c6f747541,%rax
  40255e:	61 62 20 
  402561:	48 89 43 20          	mov    %rax,0x20(%rbx)
  402565:	c7 43 28 73 65 72 76 	movl   $0x76726573,0x28(%rbx)
  40256c:	66 c7 43 2c 65 72    	movw   $0x7265,0x2c(%rbx)
  402572:	c6 43 2e 00          	movb   $0x0,0x2e(%rbx)
  402576:	89 ef                	mov    %ebp,%edi
  402578:	e8 d3 e7 ff ff       	callq  400d50 <close@plt>
  40257d:	b8 ff ff ff ff       	mov    $0xffffffff,%eax
  402582:	e9 72 05 00 00       	jmpq   402af9 <submitr+0x761>
  402587:	48 c7 c6 ff ff ff ff 	mov    $0xffffffffffffffff,%rsi
  40258e:	b8 00 00 00 00       	mov    $0x0,%eax
  402593:	48 89 f1             	mov    %rsi,%rcx
  402596:	4c 89 e7             	mov    %r12,%rdi
  402599:	f2 ae                	repnz scas %es:(%rdi),%al
  40259b:	48 f7 d1             	not    %rcx
  40259e:	48 89 ca             	mov    %rcx,%rdx
  4025a1:	48 89 f1             	mov    %rsi,%rcx
  4025a4:	48 8b 3c 24          	mov    (%rsp),%rdi
  4025a8:	f2 ae                	repnz scas %es:(%rdi),%al
  4025aa:	48 f7 d1             	not    %rcx
  4025ad:	49 89 c8             	mov    %rcx,%r8
  4025b0:	48 89 f1             	mov    %rsi,%rcx
  4025b3:	4c 89 f7             	mov    %r14,%rdi
  4025b6:	f2 ae                	repnz scas %es:(%rdi),%al
  4025b8:	48 f7 d1             	not    %rcx
  4025bb:	4d 8d 44 08 fe       	lea    -0x2(%r8,%rcx,1),%r8
  4025c0:	48 89 f1             	mov    %rsi,%rcx
  4025c3:	4c 89 ff             	mov    %r15,%rdi
  4025c6:	f2 ae                	repnz scas %es:(%rdi),%al
  4025c8:	48 89 c8             	mov    %rcx,%rax
  4025cb:	48 f7 d0             	not    %rax
  4025ce:	49 8d 4c 00 ff       	lea    -0x1(%r8,%rax,1),%rcx
  4025d3:	48 8d 44 52 fd       	lea    -0x3(%rdx,%rdx,2),%rax
  4025d8:	48 8d 84 01 80 00 00 	lea    0x80(%rcx,%rax,1),%rax
  4025df:	00 
  4025e0:	48 3d 00 20 00 00    	cmp    $0x2000,%rax
  4025e6:	76 72                	jbe    40265a <submitr+0x2c2>
  4025e8:	48 b8 45 72 72 6f 72 	movabs $0x52203a726f727245,%rax
  4025ef:	3a 20 52 
  4025f2:	48 89 03             	mov    %rax,(%rbx)
  4025f5:	48 b8 65 73 75 6c 74 	movabs $0x747320746c757365,%rax
  4025fc:	20 73 74 
  4025ff:	48 89 43 08          	mov    %rax,0x8(%rbx)
  402603:	48 b8 72 69 6e 67 20 	movabs $0x6f6f7420676e6972,%rax
  40260a:	74 6f 6f 
  40260d:	48 89 43 10          	mov    %rax,0x10(%rbx)
  402611:	48 b8 20 6c 61 72 67 	movabs $0x202e656772616c20,%rax
  402618:	65 2e 20 
  40261b:	48 89 43 18          	mov    %rax,0x18(%rbx)
  40261f:	48 b8 49 6e 63 72 65 	movabs $0x6573616572636e49,%rax
  402626:	61 73 65 
  402629:	48 89 43 20          	mov    %rax,0x20(%rbx)
  40262d:	48 b8 20 53 55 42 4d 	movabs $0x5254494d42555320,%rax
  402634:	49 54 52 
  402637:	48 89 43 28          	mov    %rax,0x28(%rbx)
  40263b:	48 b8 5f 4d 41 58 42 	movabs $0x46554258414d5f,%rax
  402642:	55 46 00 
  402645:	48 89 43 30          	mov    %rax,0x30(%rbx)
  402649:	89 ef                	mov    %ebp,%edi
  40264b:	e8 00 e7 ff ff       	callq  400d50 <close@plt>
  402650:	b8 ff ff ff ff       	mov    $0xffffffff,%eax
  402655:	e9 9f 04 00 00       	jmpq   402af9 <submitr+0x761>
  40265a:	48 8d b4 24 40 40 00 	lea    0x4040(%rsp),%rsi
  402661:	00 
  402662:	b9 00 04 00 00       	mov    $0x400,%ecx
  402667:	b8 00 00 00 00       	mov    $0x0,%eax
  40266c:	48 89 f7             	mov    %rsi,%rdi
  40266f:	f3 48 ab             	rep stos %rax,%es:(%rdi)
  402672:	4c 89 e7             	mov    %r12,%rdi
  402675:	e8 11 fc ff ff       	callq  40228b <urlencode>
  40267a:	85 c0                	test   %eax,%eax
  40267c:	0f 89 8a 00 00 00    	jns    40270c <submitr+0x374>
  402682:	48 b8 45 72 72 6f 72 	movabs $0x52203a726f727245,%rax
  402689:	3a 20 52 
  40268c:	48 89 03             	mov    %rax,(%rbx)
  40268f:	48 b8 65 73 75 6c 74 	movabs $0x747320746c757365,%rax
  402696:	20 73 74 
  402699:	48 89 43 08          	mov    %rax,0x8(%rbx)
  40269d:	48 b8 72 69 6e 67 20 	movabs $0x6e6f6320676e6972,%rax
  4026a4:	63 6f 6e 
  4026a7:	48 89 43 10          	mov    %rax,0x10(%rbx)
  4026ab:	48 b8 74 61 69 6e 73 	movabs $0x6e6120736e696174,%rax
  4026b2:	20 61 6e 
  4026b5:	48 89 43 18          	mov    %rax,0x18(%rbx)
  4026b9:	48 b8 20 69 6c 6c 65 	movabs $0x6c6167656c6c6920,%rax
  4026c0:	67 61 6c 
  4026c3:	48 89 43 20          	mov    %rax,0x20(%rbx)
  4026c7:	48 b8 20 6f 72 20 75 	movabs $0x72706e7520726f20,%rax
  4026ce:	6e 70 72 
  4026d1:	48 89 43 28          	mov    %rax,0x28(%rbx)
  4026d5:	48 b8 69 6e 74 61 62 	movabs $0x20656c6261746e69,%rax
  4026dc:	6c 65 20 
  4026df:	48 89 43 30          	mov    %rax,0x30(%rbx)
  4026e3:	48 b8 63 68 61 72 61 	movabs $0x6574636172616863,%rax
  4026ea:	63 74 65 
  4026ed:	48 89 43 38          	mov    %rax,0x38(%rbx)
  4026f1:	66 c7 43 40 72 2e    	movw   $0x2e72,0x40(%rbx)
  4026f7:	c6 43 42 00          	movb   $0x0,0x42(%rbx)
  4026fb:	89 ef                	mov    %ebp,%edi
  4026fd:	e8 4e e6 ff ff       	callq  400d50 <close@plt>
  402702:	b8 ff ff ff ff       	mov    $0xffffffff,%eax
  402707:	e9 ed 03 00 00       	jmpq   402af9 <submitr+0x761>
  40270c:	4c 8d a4 24 40 20 00 	lea    0x2040(%rsp),%r12
  402713:	00 
  402714:	48 83 ec 08          	sub    $0x8,%rsp
  402718:	41 55                	push   %r13
  40271a:	48 8d 84 24 50 40 00 	lea    0x4050(%rsp),%rax
  402721:	00 
  402722:	50                   	push   %rax
  402723:	41 56                	push   %r14
  402725:	4d 89 f9             	mov    %r15,%r9
  402728:	4c 8b 44 24 20       	mov    0x20(%rsp),%r8
  40272d:	b9 88 36 40 00       	mov    $0x403688,%ecx
  402732:	ba 00 20 00 00       	mov    $0x2000,%edx
  402737:	be 01 00 00 00       	mov    $0x1,%esi
  40273c:	4c 89 e7             	mov    %r12,%rdi
  40273f:	b8 00 00 00 00       	mov    $0x0,%eax
  402744:	e8 57 e7 ff ff       	callq  400ea0 <__sprintf_chk@plt>
  402749:	b8 00 00 00 00       	mov    $0x0,%eax
  40274e:	48 c7 c1 ff ff ff ff 	mov    $0xffffffffffffffff,%rcx
  402755:	4c 89 e7             	mov    %r12,%rdi
  402758:	f2 ae                	repnz scas %es:(%rdi),%al
  40275a:	48 f7 d1             	not    %rcx
  40275d:	48 8d 51 ff          	lea    -0x1(%rcx),%rdx
  402761:	48 83 c4 20          	add    $0x20,%rsp
  402765:	4c 89 e6             	mov    %r12,%rsi
  402768:	89 ef                	mov    %ebp,%edi
  40276a:	e8 8b f9 ff ff       	callq  4020fa <rio_writen>
  40276f:	48 85 c0             	test   %rax,%rax
  402772:	79 6b                	jns    4027df <submitr+0x447>
  402774:	48 b8 45 72 72 6f 72 	movabs $0x43203a726f727245,%rax
  40277b:	3a 20 43 
  40277e:	48 89 03             	mov    %rax,(%rbx)
  402781:	48 b8 6c 69 65 6e 74 	movabs $0x6e7520746e65696c,%rax
  402788:	20 75 6e 
  40278b:	48 89 43 08          	mov    %rax,0x8(%rbx)
  40278f:	48 b8 61 62 6c 65 20 	movabs $0x206f7420656c6261,%rax
  402796:	74 6f 20 
  402799:	48 89 43 10          	mov    %rax,0x10(%rbx)
  40279d:	48 b8 77 72 69 74 65 	movabs $0x6f74206574697277,%rax
  4027a4:	20 74 6f 
  4027a7:	48 89 43 18          	mov    %rax,0x18(%rbx)
  4027ab:	48 b8 20 74 68 65 20 	movabs $0x7475412065687420,%rax
  4027b2:	41 75 74 
  4027b5:	48 89 43 20          	mov    %rax,0x20(%rbx)
  4027b9:	48 b8 6f 6c 61 62 20 	movabs $0x7265732062616c6f,%rax
  4027c0:	73 65 72 
  4027c3:	48 89 43 28          	mov    %rax,0x28(%rbx)
  4027c7:	c7 43 30 76 65 72 00 	movl   $0x726576,0x30(%rbx)
  4027ce:	89 ef                	mov    %ebp,%edi
  4027d0:	e8 7b e5 ff ff       	callq  400d50 <close@plt>
  4027d5:	b8 ff ff ff ff       	mov    $0xffffffff,%eax
  4027da:	e9 1a 03 00 00       	jmpq   402af9 <submitr+0x761>
  4027df:	89 ee                	mov    %ebp,%esi
  4027e1:	48 8d 7c 24 30       	lea    0x30(%rsp),%rdi
  4027e6:	e8 cf f8 ff ff       	callq  4020ba <rio_readinitb>
  4027eb:	ba 00 20 00 00       	mov    $0x2000,%edx
  4027f0:	48 8d b4 24 40 20 00 	lea    0x2040(%rsp),%rsi
  4027f7:	00 
  4027f8:	48 8d 7c 24 30       	lea    0x30(%rsp),%rdi
  4027fd:	e8 df f9 ff ff       	callq  4021e1 <rio_readlineb>
  402802:	48 85 c0             	test   %rax,%rax
  402805:	7f 7f                	jg     402886 <submitr+0x4ee>
  402807:	48 b8 45 72 72 6f 72 	movabs $0x43203a726f727245,%rax
  40280e:	3a 20 43 
  402811:	48 89 03             	mov    %rax,(%rbx)
  402814:	48 b8 6c 69 65 6e 74 	movabs $0x6e7520746e65696c,%rax
  40281b:	20 75 6e 
  40281e:	48 89 43 08          	mov    %rax,0x8(%rbx)
  402822:	48 b8 61 62 6c 65 20 	movabs $0x206f7420656c6261,%rax
  402829:	74 6f 20 
  40282c:	48 89 43 10          	mov    %rax,0x10(%rbx)
  402830:	48 b8 72 65 61 64 20 	movabs $0x7269662064616572,%rax
  402837:	66 69 72 
  40283a:	48 89 43 18          	mov    %rax,0x18(%rbx)
  40283e:	48 b8 73 74 20 68 65 	movabs $0x6564616568207473,%rax
  402845:	61 64 65 
  402848:	48 89 43 20          	mov    %rax,0x20(%rbx)
  40284c:	48 b8 72 20 66 72 6f 	movabs $0x41206d6f72662072,%rax
  402853:	6d 20 41 
  402856:	48 89 43 28          	mov    %rax,0x28(%rbx)
  40285a:	48 b8 75 74 6f 6c 61 	movabs $0x732062616c6f7475,%rax
  402861:	62 20 73 
  402864:	48 89 43 30          	mov    %rax,0x30(%rbx)
  402868:	c7 43 38 65 72 76 65 	movl   $0x65767265,0x38(%rbx)
  40286f:	66 c7 43 3c 72 00    	movw   $0x72,0x3c(%rbx)
  402875:	89 ef                	mov    %ebp,%edi
  402877:	e8 d4 e4 ff ff       	callq  400d50 <close@plt>
  40287c:	b8 ff ff ff ff       	mov    $0xffffffff,%eax
  402881:	e9 73 02 00 00       	jmpq   402af9 <submitr+0x761>
  402886:	4c 8d 84 24 40 80 00 	lea    0x8040(%rsp),%r8
  40288d:	00 
  40288e:	48 8d 4c 24 1c       	lea    0x1c(%rsp),%rcx
  402893:	48 8d 94 24 40 60 00 	lea    0x6040(%rsp),%rdx
  40289a:	00 
  40289b:	be 1f 37 40 00       	mov    $0x40371f,%esi
  4028a0:	48 8d bc 24 40 20 00 	lea    0x2040(%rsp),%rdi
  4028a7:	00 
  4028a8:	b8 00 00 00 00       	mov    $0x0,%eax
  4028ad:	e8 4e e5 ff ff       	callq  400e00 <__isoc99_sscanf@plt>
  4028b2:	e9 92 00 00 00       	jmpq   402949 <submitr+0x5b1>
  4028b7:	ba 00 20 00 00       	mov    $0x2000,%edx
  4028bc:	48 8d b4 24 40 20 00 	lea    0x2040(%rsp),%rsi
  4028c3:	00 
  4028c4:	48 8d 7c 24 30       	lea    0x30(%rsp),%rdi
  4028c9:	e8 13 f9 ff ff       	callq  4021e1 <rio_readlineb>
  4028ce:	48 85 c0             	test   %rax,%rax
  4028d1:	7f 76                	jg     402949 <submitr+0x5b1>
  4028d3:	48 b8 45 72 72 6f 72 	movabs $0x43203a726f727245,%rax
  4028da:	3a 20 43 
  4028dd:	48 89 03             	mov    %rax,(%rbx)
  4028e0:	48 b8 6c 69 65 6e 74 	movabs $0x6e7520746e65696c,%rax
  4028e7:	20 75 6e 
  4028ea:	48 89 43 08          	mov    %rax,0x8(%rbx)
  4028ee:	48 b8 61 62 6c 65 20 	movabs $0x206f7420656c6261,%rax
  4028f5:	74 6f 20 
  4028f8:	48 89 43 10          	mov    %rax,0x10(%rbx)
  4028fc:	48 b8 72 65 61 64 20 	movabs $0x6165682064616572,%rax
  402903:	68 65 61 
  402906:	48 89 43 18          	mov    %rax,0x18(%rbx)
  40290a:	48 b8 64 65 72 73 20 	movabs $0x6f72662073726564,%rax
  402911:	66 72 6f 
  402914:	48 89 43 20          	mov    %rax,0x20(%rbx)
  402918:	48 b8 6d 20 41 75 74 	movabs $0x616c6f747541206d,%rax
  40291f:	6f 6c 61 
  402922:	48 89 43 28          	mov    %rax,0x28(%rbx)
  402926:	48 b8 62 20 73 65 72 	movabs $0x7265767265732062,%rax
  40292d:	76 65 72 
  402930:	48 89 43 30          	mov    %rax,0x30(%rbx)
  402934:	c6 43 38 00          	movb   $0x0,0x38(%rbx)
  402938:	89 ef                	mov    %ebp,%edi
  40293a:	e8 11 e4 ff ff       	callq  400d50 <close@plt>
  40293f:	b8 ff ff ff ff       	mov    $0xffffffff,%eax
  402944:	e9 b0 01 00 00       	jmpq   402af9 <submitr+0x761>
  402949:	0f b6 94 24 40 20 00 	movzbl 0x2040(%rsp),%edx
  402950:	00 
  402951:	b8 0d 00 00 00       	mov    $0xd,%eax
  402956:	29 d0                	sub    %edx,%eax
  402958:	75 1b                	jne    402975 <submitr+0x5dd>
  40295a:	0f b6 94 24 41 20 00 	movzbl 0x2041(%rsp),%edx
  402961:	00 
  402962:	b8 0a 00 00 00       	mov    $0xa,%eax
  402967:	29 d0                	sub    %edx,%eax
  402969:	75 0a                	jne    402975 <submitr+0x5dd>
  40296b:	0f b6 84 24 42 20 00 	movzbl 0x2042(%rsp),%eax
  402972:	00 
  402973:	f7 d8                	neg    %eax
  402975:	85 c0                	test   %eax,%eax
  402977:	0f 85 3a ff ff ff    	jne    4028b7 <submitr+0x51f>
  40297d:	ba 00 20 00 00       	mov    $0x2000,%edx
  402982:	48 8d b4 24 40 20 00 	lea    0x2040(%rsp),%rsi
  402989:	00 
  40298a:	48 8d 7c 24 30       	lea    0x30(%rsp),%rdi
  40298f:	e8 4d f8 ff ff       	callq  4021e1 <rio_readlineb>
  402994:	48 85 c0             	test   %rax,%rax
  402997:	0f 8f 80 00 00 00    	jg     402a1d <submitr+0x685>
  40299d:	48 b8 45 72 72 6f 72 	movabs $0x43203a726f727245,%rax
  4029a4:	3a 20 43 
  4029a7:	48 89 03             	mov    %rax,(%rbx)
  4029aa:	48 b8 6c 69 65 6e 74 	movabs $0x6e7520746e65696c,%rax
  4029b1:	20 75 6e 
  4029b4:	48 89 43 08          	mov    %rax,0x8(%rbx)
  4029b8:	48 b8 61 62 6c 65 20 	movabs $0x206f7420656c6261,%rax
  4029bf:	74 6f 20 
  4029c2:	48 89 43 10          	mov    %rax,0x10(%rbx)
  4029c6:	48 b8 72 65 61 64 20 	movabs $0x6174732064616572,%rax
  4029cd:	73 74 61 
  4029d0:	48 89 43 18          	mov    %rax,0x18(%rbx)
  4029d4:	48 b8 74 75 73 20 6d 	movabs $0x7373656d20737574,%rax
  4029db:	65 73 73 
  4029de:	48 89 43 20          	mov    %rax,0x20(%rbx)
  4029e2:	48 b8 61 67 65 20 66 	movabs $0x6d6f726620656761,%rax
  4029e9:	72 6f 6d 
  4029ec:	48 89 43 28          	mov    %rax,0x28(%rbx)
  4029f0:	48 b8 20 41 75 74 6f 	movabs $0x62616c6f74754120,%rax
  4029f7:	6c 61 62 
  4029fa:	48 89 43 30          	mov    %rax,0x30(%rbx)
  4029fe:	48 b8 20 73 65 72 76 	movabs $0x72657672657320,%rax
  402a05:	65 72 00 
  402a08:	48 89 43 38          	mov    %rax,0x38(%rbx)
  402a0c:	89 ef                	mov    %ebp,%edi
  402a0e:	e8 3d e3 ff ff       	callq  400d50 <close@plt>
  402a13:	b8 ff ff ff ff       	mov    $0xffffffff,%eax
  402a18:	e9 dc 00 00 00       	jmpq   402af9 <submitr+0x761>
  402a1d:	44 8b 44 24 1c       	mov    0x1c(%rsp),%r8d
  402a22:	41 81 f8 c8 00 00 00 	cmp    $0xc8,%r8d
  402a29:	74 37                	je     402a62 <submitr+0x6ca>
  402a2b:	4c 8d 8c 24 40 80 00 	lea    0x8040(%rsp),%r9
  402a32:	00 
  402a33:	b9 e8 36 40 00       	mov    $0x4036e8,%ecx
  402a38:	48 c7 c2 ff ff ff ff 	mov    $0xffffffffffffffff,%rdx
  402a3f:	be 01 00 00 00       	mov    $0x1,%esi
  402a44:	48 89 df             	mov    %rbx,%rdi
  402a47:	b8 00 00 00 00       	mov    $0x0,%eax
  402a4c:	e8 4f e4 ff ff       	callq  400ea0 <__sprintf_chk@plt>
  402a51:	89 ef                	mov    %ebp,%edi
  402a53:	e8 f8 e2 ff ff       	callq  400d50 <close@plt>
  402a58:	b8 ff ff ff ff       	mov    $0xffffffff,%eax
  402a5d:	e9 97 00 00 00       	jmpq   402af9 <submitr+0x761>
  402a62:	48 8d b4 24 40 20 00 	lea    0x2040(%rsp),%rsi
  402a69:	00 
  402a6a:	48 89 df             	mov    %rbx,%rdi
  402a6d:	e8 6e e2 ff ff       	callq  400ce0 <strcpy@plt>
  402a72:	89 ef                	mov    %ebp,%edi
  402a74:	e8 d7 e2 ff ff       	callq  400d50 <close@plt>
  402a79:	0f b6 03             	movzbl (%rbx),%eax
  402a7c:	ba 4f 00 00 00       	mov    $0x4f,%edx
  402a81:	29 c2                	sub    %eax,%edx
  402a83:	75 22                	jne    402aa7 <submitr+0x70f>
  402a85:	0f b6 4b 01          	movzbl 0x1(%rbx),%ecx
  402a89:	b8 4b 00 00 00       	mov    $0x4b,%eax
  402a8e:	29 c8                	sub    %ecx,%eax
  402a90:	75 17                	jne    402aa9 <submitr+0x711>
  402a92:	0f b6 4b 02          	movzbl 0x2(%rbx),%ecx
  402a96:	b8 0a 00 00 00       	mov    $0xa,%eax
  402a9b:	29 c8                	sub    %ecx,%eax
  402a9d:	75 0a                	jne    402aa9 <submitr+0x711>
  402a9f:	0f b6 43 03          	movzbl 0x3(%rbx),%eax
  402aa3:	f7 d8                	neg    %eax
  402aa5:	eb 02                	jmp    402aa9 <submitr+0x711>
  402aa7:	89 d0                	mov    %edx,%eax
  402aa9:	85 c0                	test   %eax,%eax
  402aab:	74 40                	je     402aed <submitr+0x755>
  402aad:	bf 30 37 40 00       	mov    $0x403730,%edi
  402ab2:	b9 05 00 00 00       	mov    $0x5,%ecx
  402ab7:	48 89 de             	mov    %rbx,%rsi
  402aba:	f3 a6                	repz cmpsb %es:(%rdi),%ds:(%rsi)
  402abc:	0f 97 c0             	seta   %al
  402abf:	0f 92 c1             	setb   %cl
  402ac2:	29 c8                	sub    %ecx,%eax
  402ac4:	0f be c0             	movsbl %al,%eax
  402ac7:	85 c0                	test   %eax,%eax
  402ac9:	74 2e                	je     402af9 <submitr+0x761>
  402acb:	85 d2                	test   %edx,%edx
  402acd:	75 13                	jne    402ae2 <submitr+0x74a>
  402acf:	0f b6 43 01          	movzbl 0x1(%rbx),%eax
  402ad3:	ba 4b 00 00 00       	mov    $0x4b,%edx
  402ad8:	29 c2                	sub    %eax,%edx
  402ada:	75 06                	jne    402ae2 <submitr+0x74a>
  402adc:	0f b6 53 02          	movzbl 0x2(%rbx),%edx
  402ae0:	f7 da                	neg    %edx
  402ae2:	85 d2                	test   %edx,%edx
  402ae4:	75 0e                	jne    402af4 <submitr+0x75c>
  402ae6:	b8 00 00 00 00       	mov    $0x0,%eax
  402aeb:	eb 0c                	jmp    402af9 <submitr+0x761>
  402aed:	b8 00 00 00 00       	mov    $0x0,%eax
  402af2:	eb 05                	jmp    402af9 <submitr+0x761>
  402af4:	b8 ff ff ff ff       	mov    $0xffffffff,%eax
  402af9:	48 8b 9c 24 48 a0 00 	mov    0xa048(%rsp),%rbx
  402b00:	00 
  402b01:	64 48 33 1c 25 28 00 	xor    %fs:0x28,%rbx
  402b08:	00 00 
  402b0a:	74 05                	je     402b11 <submitr+0x779>
  402b0c:	e8 ff e1 ff ff       	callq  400d10 <__stack_chk_fail@plt>
  402b11:	48 81 c4 58 a0 00 00 	add    $0xa058,%rsp
  402b18:	5b                   	pop    %rbx
  402b19:	5d                   	pop    %rbp
  402b1a:	41 5c                	pop    %r12
  402b1c:	41 5d                	pop    %r13
  402b1e:	41 5e                	pop    %r14
  402b20:	41 5f                	pop    %r15
  402b22:	c3                   	retq   

0000000000402b23 <init_timeout>:
  402b23:	85 ff                	test   %edi,%edi
  402b25:	74 23                	je     402b4a <init_timeout+0x27>
  402b27:	53                   	push   %rbx
  402b28:	89 fb                	mov    %edi,%ebx
  402b2a:	85 ff                	test   %edi,%edi
  402b2c:	79 05                	jns    402b33 <init_timeout+0x10>
  402b2e:	bb 00 00 00 00       	mov    $0x0,%ebx
  402b33:	be cc 20 40 00       	mov    $0x4020cc,%esi
  402b38:	bf 0e 00 00 00       	mov    $0xe,%edi
  402b3d:	e8 3e e2 ff ff       	callq  400d80 <signal@plt>
  402b42:	89 df                	mov    %ebx,%edi
  402b44:	e8 f7 e1 ff ff       	callq  400d40 <alarm@plt>
  402b49:	5b                   	pop    %rbx
  402b4a:	f3 c3                	repz retq 

0000000000402b4c <init_driver>:
  402b4c:	55                   	push   %rbp
  402b4d:	53                   	push   %rbx
  402b4e:	48 83 ec 28          	sub    $0x28,%rsp
  402b52:	48 89 fd             	mov    %rdi,%rbp
  402b55:	64 48 8b 04 25 28 00 	mov    %fs:0x28,%rax
  402b5c:	00 00 
  402b5e:	48 89 44 24 18       	mov    %rax,0x18(%rsp)
  402b63:	31 c0                	xor    %eax,%eax
  402b65:	be 01 00 00 00       	mov    $0x1,%esi
  402b6a:	bf 0d 00 00 00       	mov    $0xd,%edi
  402b6f:	e8 0c e2 ff ff       	callq  400d80 <signal@plt>
  402b74:	be 01 00 00 00       	mov    $0x1,%esi
  402b79:	bf 1d 00 00 00       	mov    $0x1d,%edi
  402b7e:	e8 fd e1 ff ff       	callq  400d80 <signal@plt>
  402b83:	be 01 00 00 00       	mov    $0x1,%esi
  402b88:	bf 1d 00 00 00       	mov    $0x1d,%edi
  402b8d:	e8 ee e1 ff ff       	callq  400d80 <signal@plt>
  402b92:	ba 00 00 00 00       	mov    $0x0,%edx
  402b97:	be 01 00 00 00       	mov    $0x1,%esi
  402b9c:	bf 02 00 00 00       	mov    $0x2,%edi
  402ba1:	e8 0a e3 ff ff       	callq  400eb0 <socket@plt>
  402ba6:	85 c0                	test   %eax,%eax
  402ba8:	79 4f                	jns    402bf9 <init_driver+0xad>
  402baa:	48 b8 45 72 72 6f 72 	movabs $0x43203a726f727245,%rax
  402bb1:	3a 20 43 
  402bb4:	48 89 45 00          	mov    %rax,0x0(%rbp)
  402bb8:	48 b8 6c 69 65 6e 74 	movabs $0x6e7520746e65696c,%rax
  402bbf:	20 75 6e 
  402bc2:	48 89 45 08          	mov    %rax,0x8(%rbp)
  402bc6:	48 b8 61 62 6c 65 20 	movabs $0x206f7420656c6261,%rax
  402bcd:	74 6f 20 
  402bd0:	48 89 45 10          	mov    %rax,0x10(%rbp)
  402bd4:	48 b8 63 72 65 61 74 	movabs $0x7320657461657263,%rax
  402bdb:	65 20 73 
  402bde:	48 89 45 18          	mov    %rax,0x18(%rbp)
  402be2:	c7 45 20 6f 63 6b 65 	movl   $0x656b636f,0x20(%rbp)
  402be9:	66 c7 45 24 74 00    	movw   $0x74,0x24(%rbp)
  402bef:	b8 ff ff ff ff       	mov    $0xffffffff,%eax
  402bf4:	e9 2a 01 00 00       	jmpq   402d23 <init_driver+0x1d7>
  402bf9:	89 c3                	mov    %eax,%ebx
  402bfb:	bf 55 32 40 00       	mov    $0x403255,%edi
  402c00:	e8 8b e1 ff ff       	callq  400d90 <gethostbyname@plt>
  402c05:	48 85 c0             	test   %rax,%rax
  402c08:	75 68                	jne    402c72 <init_driver+0x126>
  402c0a:	48 b8 45 72 72 6f 72 	movabs $0x44203a726f727245,%rax
  402c11:	3a 20 44 
  402c14:	48 89 45 00          	mov    %rax,0x0(%rbp)
  402c18:	48 b8 4e 53 20 69 73 	movabs $0x6e7520736920534e,%rax
  402c1f:	20 75 6e 
  402c22:	48 89 45 08          	mov    %rax,0x8(%rbp)
  402c26:	48 b8 61 62 6c 65 20 	movabs $0x206f7420656c6261,%rax
  402c2d:	74 6f 20 
  402c30:	48 89 45 10          	mov    %rax,0x10(%rbp)
  402c34:	48 b8 72 65 73 6f 6c 	movabs $0x2065766c6f736572,%rax
  402c3b:	76 65 20 
  402c3e:	48 89 45 18          	mov    %rax,0x18(%rbp)
  402c42:	48 b8 73 65 72 76 65 	movabs $0x6120726576726573,%rax
  402c49:	72 20 61 
  402c4c:	48 89 45 20          	mov    %rax,0x20(%rbp)
  402c50:	c7 45 28 64 64 72 65 	movl   $0x65726464,0x28(%rbp)
  402c57:	66 c7 45 2c 73 73    	movw   $0x7373,0x2c(%rbp)
  402c5d:	c6 45 2e 00          	movb   $0x0,0x2e(%rbp)
  402c61:	89 df                	mov    %ebx,%edi
  402c63:	e8 e8 e0 ff ff       	callq  400d50 <close@plt>
  402c68:	b8 ff ff ff ff       	mov    $0xffffffff,%eax
  402c6d:	e9 b1 00 00 00       	jmpq   402d23 <init_driver+0x1d7>
  402c72:	48 c7 04 24 00 00 00 	movq   $0x0,(%rsp)
  402c79:	00 
  402c7a:	48 c7 44 24 08 00 00 	movq   $0x0,0x8(%rsp)
  402c81:	00 00 
  402c83:	66 c7 04 24 02 00    	movw   $0x2,(%rsp)
  402c89:	48 63 50 14          	movslq 0x14(%rax),%rdx
  402c8d:	48 8b 40 18          	mov    0x18(%rax),%rax
  402c91:	48 8b 30             	mov    (%rax),%rsi
  402c94:	48 8d 7c 24 04       	lea    0x4(%rsp),%rdi
  402c99:	b9 0c 00 00 00       	mov    $0xc,%ecx
  402c9e:	e8 fd e0 ff ff       	callq  400da0 <__memmove_chk@plt>
  402ca3:	66 c7 44 24 02 00 50 	movw   $0x5000,0x2(%rsp)
  402caa:	ba 10 00 00 00       	mov    $0x10,%edx
  402caf:	48 89 e6             	mov    %rsp,%rsi
  402cb2:	89 df                	mov    %ebx,%edi
  402cb4:	e8 c7 e1 ff ff       	callq  400e80 <connect@plt>
  402cb9:	85 c0                	test   %eax,%eax
  402cbb:	79 50                	jns    402d0d <init_driver+0x1c1>
  402cbd:	48 b8 45 72 72 6f 72 	movabs $0x55203a726f727245,%rax
  402cc4:	3a 20 55 
  402cc7:	48 89 45 00          	mov    %rax,0x0(%rbp)
  402ccb:	48 b8 6e 61 62 6c 65 	movabs $0x6f7420656c62616e,%rax
  402cd2:	20 74 6f 
  402cd5:	48 89 45 08          	mov    %rax,0x8(%rbp)
  402cd9:	48 b8 20 63 6f 6e 6e 	movabs $0x7463656e6e6f6320,%rax
  402ce0:	65 63 74 
  402ce3:	48 89 45 10          	mov    %rax,0x10(%rbp)
  402ce7:	48 b8 20 74 6f 20 73 	movabs $0x76726573206f7420,%rax
  402cee:	65 72 76 
  402cf1:	48 89 45 18          	mov    %rax,0x18(%rbp)
  402cf5:	66 c7 45 20 65 72    	movw   $0x7265,0x20(%rbp)
  402cfb:	c6 45 22 00          	movb   $0x0,0x22(%rbp)
  402cff:	89 df                	mov    %ebx,%edi
  402d01:	e8 4a e0 ff ff       	callq  400d50 <close@plt>
  402d06:	b8 ff ff ff ff       	mov    $0xffffffff,%eax
  402d0b:	eb 16                	jmp    402d23 <init_driver+0x1d7>
  402d0d:	89 df                	mov    %ebx,%edi
  402d0f:	e8 3c e0 ff ff       	callq  400d50 <close@plt>
  402d14:	66 c7 45 00 4f 4b    	movw   $0x4b4f,0x0(%rbp)
  402d1a:	c6 45 02 00          	movb   $0x0,0x2(%rbp)
  402d1e:	b8 00 00 00 00       	mov    $0x0,%eax
  402d23:	48 8b 4c 24 18       	mov    0x18(%rsp),%rcx
  402d28:	64 48 33 0c 25 28 00 	xor    %fs:0x28,%rcx
  402d2f:	00 00 
  402d31:	74 05                	je     402d38 <init_driver+0x1ec>
  402d33:	e8 d8 df ff ff       	callq  400d10 <__stack_chk_fail@plt>
  402d38:	48 83 c4 28          	add    $0x28,%rsp
  402d3c:	5b                   	pop    %rbx
  402d3d:	5d                   	pop    %rbp
  402d3e:	c3                   	retq   

0000000000402d3f <driver_post>:
  402d3f:	53                   	push   %rbx
  402d40:	4c 89 cb             	mov    %r9,%rbx
  402d43:	45 85 c0             	test   %r8d,%r8d
  402d46:	74 27                	je     402d6f <driver_post+0x30>
  402d48:	48 89 ca             	mov    %rcx,%rdx
  402d4b:	be 35 37 40 00       	mov    $0x403735,%esi
  402d50:	bf 01 00 00 00       	mov    $0x1,%edi
  402d55:	b8 00 00 00 00       	mov    $0x0,%eax
  402d5a:	e8 c1 e0 ff ff       	callq  400e20 <__printf_chk@plt>
  402d5f:	66 c7 03 4f 4b       	movw   $0x4b4f,(%rbx)
  402d64:	c6 43 02 00          	movb   $0x0,0x2(%rbx)
  402d68:	b8 00 00 00 00       	mov    $0x0,%eax
  402d6d:	eb 3f                	jmp    402dae <driver_post+0x6f>
  402d6f:	48 85 ff             	test   %rdi,%rdi
  402d72:	74 2c                	je     402da0 <driver_post+0x61>
  402d74:	80 3f 00             	cmpb   $0x0,(%rdi)
  402d77:	74 27                	je     402da0 <driver_post+0x61>
  402d79:	48 83 ec 08          	sub    $0x8,%rsp
  402d7d:	41 51                	push   %r9
  402d7f:	49 89 c9             	mov    %rcx,%r9
  402d82:	49 89 d0             	mov    %rdx,%r8
  402d85:	48 89 f9             	mov    %rdi,%rcx
  402d88:	48 89 f2             	mov    %rsi,%rdx
  402d8b:	be 50 00 00 00       	mov    $0x50,%esi
  402d90:	bf 55 32 40 00       	mov    $0x403255,%edi
  402d95:	e8 fe f5 ff ff       	callq  402398 <submitr>
  402d9a:	48 83 c4 10          	add    $0x10,%rsp
  402d9e:	eb 0e                	jmp    402dae <driver_post+0x6f>
  402da0:	66 c7 03 4f 4b       	movw   $0x4b4f,(%rbx)
  402da5:	c6 43 02 00          	movb   $0x0,0x2(%rbx)
  402da9:	b8 00 00 00 00       	mov    $0x0,%eax
  402dae:	5b                   	pop    %rbx
  402daf:	c3                   	retq   

0000000000402db0 <check>:
  402db0:	89 f8                	mov    %edi,%eax
  402db2:	c1 e8 1c             	shr    $0x1c,%eax
  402db5:	85 c0                	test   %eax,%eax
  402db7:	74 1d                	je     402dd6 <check+0x26>
  402db9:	b9 00 00 00 00       	mov    $0x0,%ecx
  402dbe:	eb 0b                	jmp    402dcb <check+0x1b>
  402dc0:	89 f8                	mov    %edi,%eax
  402dc2:	d3 e8                	shr    %cl,%eax
  402dc4:	3c 0a                	cmp    $0xa,%al
  402dc6:	74 14                	je     402ddc <check+0x2c>
  402dc8:	83 c1 08             	add    $0x8,%ecx
  402dcb:	83 f9 1f             	cmp    $0x1f,%ecx
  402dce:	7e f0                	jle    402dc0 <check+0x10>
  402dd0:	b8 01 00 00 00       	mov    $0x1,%eax
  402dd5:	c3                   	retq   
  402dd6:	b8 00 00 00 00       	mov    $0x0,%eax
  402ddb:	c3                   	retq   
  402ddc:	b8 00 00 00 00       	mov    $0x0,%eax
  402de1:	c3                   	retq   

0000000000402de2 <gencookie>:
  402de2:	53                   	push   %rbx
  402de3:	83 c7 01             	add    $0x1,%edi
  402de6:	e8 d5 de ff ff       	callq  400cc0 <srandom@plt>
  402deb:	e8 f0 df ff ff       	callq  400de0 <random@plt>
  402df0:	89 c3                	mov    %eax,%ebx
  402df2:	89 c7                	mov    %eax,%edi
  402df4:	e8 b7 ff ff ff       	callq  402db0 <check>
  402df9:	85 c0                	test   %eax,%eax
  402dfb:	74 ee                	je     402deb <gencookie+0x9>
  402dfd:	89 d8                	mov    %ebx,%eax
  402dff:	5b                   	pop    %rbx
  402e00:	c3                   	retq   
  402e01:	66 2e 0f 1f 84 00 00 	nopw   %cs:0x0(%rax,%rax,1)
  402e08:	00 00 00 
  402e0b:	0f 1f 44 00 00       	nopl   0x0(%rax,%rax,1)

0000000000402e10 <__libc_csu_init>:
  402e10:	41 57                	push   %r15
  402e12:	41 56                	push   %r14
  402e14:	41 89 ff             	mov    %edi,%r15d
  402e17:	41 55                	push   %r13
  402e19:	41 54                	push   %r12
  402e1b:	4c 8d 25 de 1f 20 00 	lea    0x201fde(%rip),%r12        # 604e00 <__frame_dummy_init_array_entry>
  402e22:	55                   	push   %rbp
  402e23:	48 8d 2d de 1f 20 00 	lea    0x201fde(%rip),%rbp        # 604e08 <__init_array_end>
  402e2a:	53                   	push   %rbx
  402e2b:	49 89 f6             	mov    %rsi,%r14
  402e2e:	49 89 d5             	mov    %rdx,%r13
  402e31:	4c 29 e5             	sub    %r12,%rbp
  402e34:	48 83 ec 08          	sub    $0x8,%rsp
  402e38:	48 c1 fd 03          	sar    $0x3,%rbp
  402e3c:	e8 27 de ff ff       	callq  400c68 <_init>
  402e41:	48 85 ed             	test   %rbp,%rbp
  402e44:	74 20                	je     402e66 <__libc_csu_init+0x56>
  402e46:	31 db                	xor    %ebx,%ebx
  402e48:	0f 1f 84 00 00 00 00 	nopl   0x0(%rax,%rax,1)
  402e4f:	00 
  402e50:	4c 89 ea             	mov    %r13,%rdx
  402e53:	4c 89 f6             	mov    %r14,%rsi
  402e56:	44 89 ff             	mov    %r15d,%edi
  402e59:	41 ff 14 dc          	callq  *(%r12,%rbx,8)
  402e5d:	48 83 c3 01          	add    $0x1,%rbx
  402e61:	48 39 eb             	cmp    %rbp,%rbx
  402e64:	75 ea                	jne    402e50 <__libc_csu_init+0x40>
  402e66:	48 83 c4 08          	add    $0x8,%rsp
  402e6a:	5b                   	pop    %rbx
  402e6b:	5d                   	pop    %rbp
  402e6c:	41 5c                	pop    %r12
  402e6e:	41 5d                	pop    %r13
  402e70:	41 5e                	pop    %r14
  402e72:	41 5f                	pop    %r15
  402e74:	c3                   	retq   
  402e75:	90                   	nop
  402e76:	66 2e 0f 1f 84 00 00 	nopw   %cs:0x0(%rax,%rax,1)
  402e7d:	00 00 00 

0000000000402e80 <__libc_csu_fini>:
  402e80:	f3 c3                	repz retq 

Disassembly of section .fini:

0000000000402e84 <_fini>:
  402e84:	48 83 ec 08          	sub    $0x8,%rsp
  402e88:	48 83 c4 08          	add    $0x8,%rsp
  402e8c:	c3                   	retq   
